 Child_App_cgxe

 Timestamp is 65182c24 (Sat Sep 30 19:39:40 2023)

 Preferred load address is 0000000180000000

 Start         Length     Name                   Class
 0001:00000000 0001bd80H .text$mn                CODE
 0001:0001bd80 00000036H .text$mn$00             CODE
 0001:0001bdb6 00000092H .text$x                 CODE
 0002:00000000 00000320H .idata$5                DATA
 0002:00000320 00000038H .00cfg                  DATA
 0002:00000358 00000008H .CRT$XCA                DATA
 0002:00000360 00000008H .CRT$XCZ                DATA
 0002:00000368 00000008H .CRT$XIA                DATA
 0002:00000370 00000008H .CRT$XIZ                DATA
 0002:00000378 00000008H .CRT$XPA                DATA
 0002:00000380 00000008H .CRT$XPZ                DATA
 0002:00000388 00000008H .CRT$XTA                DATA
 0002:00000390 00000010H .CRT$XTZ                DATA
 0002:00000398 00000000H .gehcont$y              DATA
 0002:00000398 00000000H .gfids$y                DATA
 0002:000003a0 000005e0H .rdata                  DATA
 0002:00000980 00000080H .rdata$CastGuardVftablesA DATA
 0002:00000a00 00000080H .rdata$CastGuardVftablesC DATA
 0002:00000a80 00000224H .rdata$voltmd           DATA
 0002:00000ca4 0000027cH .rdata$zzzdbg           DATA
 0002:00000f20 00000008H .rtc$IAA                DATA
 0002:00000f28 00000008H .rtc$IZZ                DATA
 0002:00000f30 00000008H .rtc$TAA                DATA
 0002:00000f38 00000008H .rtc$TZZ                DATA
 0002:00000f40 00001300H .xdata                  DATA
 0002:00002240 00000078H .edata                  DATA
 0002:000022b8 000000c8H .idata$2                DATA
 0002:00002380 00000018H .idata$3                DATA
 0002:00002398 00000320H .idata$4                DATA
 0002:000026b8 00000830H .idata$6                DATA
 0003:00000000 00005ac0H .data                   DATA
 0003:00005ac0 00000670H .bss                    DATA
 0004:00000000 0000189cH .pdata                  DATA

  Address         Publics by Value              Rva+Base               Lib:Object

 0000:00000000       __AbsoluteZero             0000000000000000     <absolute>
 0000:00000000       ___safe_se_handler_count   0000000000000000     <absolute>
 0000:00000000       ___safe_se_handler_table   0000000000000000     <absolute>
 0000:00000000       __arm64x_extra_rfe_table   0000000000000000     <absolute>
 0000:00000000       __arm64x_extra_rfe_table_size 0000000000000000     <absolute>
 0000:00000000       __arm64x_native_entrypoint 0000000000000000     <absolute>
 0000:00000000       __arm64x_redirection_metadata 0000000000000000     <absolute>
 0000:00000000       __arm64x_redirection_metadata_count 0000000000000000     <absolute>
 0000:00000000       __dynamic_value_reloc_table 0000000000000000     <absolute>
 0000:00000000       __enclave_config           0000000000000000     <absolute>
 0000:00000000       __guard_check_icall_a64n_fptr 0000000000000000     <absolute>
 0000:00000000       __guard_eh_cont_count      0000000000000000     <absolute>
 0000:00000000       __guard_eh_cont_table      0000000000000000     <absolute>
 0000:00000000       __guard_fids_count         0000000000000000     <absolute>
 0000:00000000       __guard_fids_table         0000000000000000     <absolute>
 0000:00000000       __guard_iat_count          0000000000000000     <absolute>
 0000:00000000       __guard_iat_table          0000000000000000     <absolute>
 0000:00000000       __guard_longjmp_count      0000000000000000     <absolute>
 0000:00000000       __guard_longjmp_table      0000000000000000     <absolute>
 0000:00000000       __hybrid_auxiliary_delayload_iat 0000000000000000     <absolute>
 0000:00000000       __hybrid_auxiliary_delayload_iat_copy 0000000000000000     <absolute>
 0000:00000000       __hybrid_auxiliary_iat     0000000000000000     <absolute>
 0000:00000000       __hybrid_auxiliary_iat_copy 0000000000000000     <absolute>
 0000:00000000       __hybrid_code_map          0000000000000000     <absolute>
 0000:00000000       __hybrid_code_map_count    0000000000000000     <absolute>
 0000:00000000       __x64_code_ranges_to_entry_points 0000000000000000     <absolute>
 0000:00000000       __x64_code_ranges_to_entry_points_count 0000000000000000     <absolute>
 0000:00000100       __guard_flags              0000000000000100     <absolute>
 0000:00000000       __ImageBase                0000000180000000     <linker-defined>
 0001:00000000       mexfilerequiredapiversion  0000000180001000 f   c_mexapi_version.obj
 0001:00000030       cgxe_Child_App_method_dispatcher 0000000180001030 f   Child_App_cgxe.obj
 0001:00000530       method_dispatcher_r9npojpcpE1nIt6wcZfq3F 0000000180001530 f   m_r9npojpcpE1nIt6wcZfq3F.obj
 0001:00001d70       cgxe_r9npojpcpE1nIt6wcZfq3F_BuildInfoUpdate 0000000180002d70 f   m_r9npojpcpE1nIt6wcZfq3F.obj
 0001:00001f00       cgxe_r9npojpcpE1nIt6wcZfq3F_fallback_info 0000000180002f00 f   m_r9npojpcpE1nIt6wcZfq3F.obj
 0001:00001fa0       method_dispatcher_DH3jGOJ4u96z2aK3hkI3OE 0000000180002fa0 f   m_DH3jGOJ4u96z2aK3hkI3OE.obj
 0001:00003b50       cgxe_DH3jGOJ4u96z2aK3hkI3OE_BuildInfoUpdate 0000000180004b50 f   m_DH3jGOJ4u96z2aK3hkI3OE.obj
 0001:00003ce0       cgxe_DH3jGOJ4u96z2aK3hkI3OE_fallback_info 0000000180004ce0 f   m_DH3jGOJ4u96z2aK3hkI3OE.obj
 0001:00003d80       method_dispatcher_zBcJJKdPFoobubnOzm2A4C 0000000180004d80 f   m_zBcJJKdPFoobubnOzm2A4C.obj
 0001:000055c0       cgxe_zBcJJKdPFoobubnOzm2A4C_BuildInfoUpdate 00000001800065c0 f   m_zBcJJKdPFoobubnOzm2A4C.obj
 0001:00005750       cgxe_zBcJJKdPFoobubnOzm2A4C_fallback_info 0000000180006750 f   m_zBcJJKdPFoobubnOzm2A4C.obj
 0001:000057f0       method_dispatcher_E5eYYMYEC9250ATstCUIJE 00000001800067f0 f   m_E5eYYMYEC9250ATstCUIJE.obj
 0001:00007030       cgxe_E5eYYMYEC9250ATstCUIJE_BuildInfoUpdate 0000000180008030 f   m_E5eYYMYEC9250ATstCUIJE.obj
 0001:000071c0       cgxe_E5eYYMYEC9250ATstCUIJE_fallback_info 00000001800081c0 f   m_E5eYYMYEC9250ATstCUIJE.obj
 0001:00007260       method_dispatcher_KfaDhNL7xJVG1u0RUxB9sH 0000000180008260 f   m_KfaDhNL7xJVG1u0RUxB9sH.obj
 0001:00008aa0       cgxe_KfaDhNL7xJVG1u0RUxB9sH_BuildInfoUpdate 0000000180009aa0 f   m_KfaDhNL7xJVG1u0RUxB9sH.obj
 0001:00008c30       cgxe_KfaDhNL7xJVG1u0RUxB9sH_fallback_info 0000000180009c30 f   m_KfaDhNL7xJVG1u0RUxB9sH.obj
 0001:00008cd0       method_dispatcher_nyucgZWjM3Ai1CT2jftVoF 0000000180009cd0 f   m_nyucgZWjM3Ai1CT2jftVoF.obj
 0001:0000a510       cgxe_nyucgZWjM3Ai1CT2jftVoF_BuildInfoUpdate 000000018000b510 f   m_nyucgZWjM3Ai1CT2jftVoF.obj
 0001:0000a6a0       cgxe_nyucgZWjM3Ai1CT2jftVoF_fallback_info 000000018000b6a0 f   m_nyucgZWjM3Ai1CT2jftVoF.obj
 0001:0000a740       method_dispatcher_KDwHGQ2xXp4wmWKPmnDGqC 000000018000b740 f   m_KDwHGQ2xXp4wmWKPmnDGqC.obj
 0001:0000bf80       cgxe_KDwHGQ2xXp4wmWKPmnDGqC_BuildInfoUpdate 000000018000cf80 f   m_KDwHGQ2xXp4wmWKPmnDGqC.obj
 0001:0000c110       cgxe_KDwHGQ2xXp4wmWKPmnDGqC_fallback_info 000000018000d110 f   m_KDwHGQ2xXp4wmWKPmnDGqC.obj
 0001:0000c1b0       method_dispatcher_N6wSUtJycDbE8bKJByzvlC 000000018000d1b0 f   m_N6wSUtJycDbE8bKJByzvlC.obj
 0001:0000d9f0       cgxe_N6wSUtJycDbE8bKJByzvlC_BuildInfoUpdate 000000018000e9f0 f   m_N6wSUtJycDbE8bKJByzvlC.obj
 0001:0000db80       cgxe_N6wSUtJycDbE8bKJByzvlC_fallback_info 000000018000eb80 f   m_N6wSUtJycDbE8bKJByzvlC.obj
 0001:0000dc20       method_dispatcher_rv2q6Si9yo15c6LurhHJ 000000018000ec20 f   m_rv2q6Si9yo15c6LurhHJ.obj
 0001:0000f460       cgxe_rv2q6Si9yo15c6LurhHJ_BuildInfoUpdate 0000000180010460 f   m_rv2q6Si9yo15c6LurhHJ.obj
 0001:0000f5f0       cgxe_rv2q6Si9yo15c6LurhHJ_fallback_info 00000001800105f0 f   m_rv2q6Si9yo15c6LurhHJ.obj
 0001:0000f690       method_dispatcher_0IWK4xPALvAwGYJfiJSKHC 0000000180010690 f   m_0IWK4xPALvAwGYJfiJSKHC.obj
 0001:00010ed0       cgxe_0IWK4xPALvAwGYJfiJSKHC_BuildInfoUpdate 0000000180011ed0 f   m_0IWK4xPALvAwGYJfiJSKHC.obj
 0001:00011060       cgxe_0IWK4xPALvAwGYJfiJSKHC_fallback_info 0000000180012060 f   m_0IWK4xPALvAwGYJfiJSKHC.obj
 0001:00011100       mexFunction                0000000180012100 f   Child_App_cgxe_registry.obj
 0001:00012f70       _ssSetInputPortDirectFeedThroughFcn 0000000180013f70 f   Child_App_cgxe_registry.obj
 0001:000130e0       _ssSetRWorkValueFcn        00000001800140e0 f   Child_App_cgxe_registry.obj
 0001:00013160       _ssGetRWorkValueFcn        0000000180014160 f   Child_App_cgxe_registry.obj
 0001:000131d0       _ssSetIWorkValueFcn        00000001800141d0 f   Child_App_cgxe_registry.obj
 0001:00013250       _ssGetIWorkValueFcn        0000000180014250 f   Child_App_cgxe_registry.obj
 0001:000132c0       _ssSetPWorkValueFcn        00000001800142c0 f   Child_App_cgxe_registry.obj
 0001:00013340       _ssGetPWorkValueFcn        0000000180014340 f   Child_App_cgxe_registry.obj
 0001:000133b0       _ssGetInputPortSignalFcn   00000001800143b0 f   Child_App_cgxe_registry.obj
 0001:00013740       _ssGetInputPortBufferDstPortFcn 0000000180014740 f   Child_App_cgxe_registry.obj
 0001:000137c0       _ssGetInputPortSignalPtrsFcn 00000001800147c0 f   Child_App_cgxe_registry.obj
 0001:00013b50       ssGetParameterTuningCompliance 0000000180014b50 f   Child_App_cgxe_registry.obj
 0001:00013bc0       _ssReadInputStringFcn      0000000180014bc0 f   Child_App_cgxe_registry.obj
 0001:00013c30       ssGetDTypeIdFromMxArray    0000000180014c30 f   Child_App_cgxe_registry.obj
 0001:00013d50       ssWriteRTWMx2dMatParam     0000000180014d50 f   Child_App_cgxe_registry.obj
 0001:00013de0       ssWriteRTWMxVectParam      0000000180014de0 f   Child_App_cgxe_registry.obj
 0001:00013e60       ssWriteRTWParameters       0000000180014e60 f   Child_App_cgxe_registry.obj
 0001:00014420       ssWriteRTWParamSettings    0000000180015420 f   Child_App_cgxe_registry.obj
 0001:00014b10       ssWriteRTWStr              0000000180015b10 f   Child_App_cgxe_registry.obj
 0001:00014b70       ssWriteRTWWorkVect         0000000180015b70 f   Child_App_cgxe_registry.obj
 0001:000150d0       ssWarning                  00000001800160d0 f   Child_App_cgxe_registry.obj
 0001:000151c0       ssGetRootSS                00000001800161c0 f   Child_App_cgxe_registry.obj
 0001:00015280       ssGetParentSS              0000000180016280 f   Child_App_cgxe_registry.obj
 0001:00015340       ssWriteRTWNameValuePair    0000000180016340 f   Child_App_cgxe_registry.obj
 0001:00015840       _ssSetInputPortMatrixDimensions 0000000180016840 f   Child_App_cgxe_registry.obj
 0001:00015990       _ssSetOutputPortMatrixDimensions 0000000180016990 f   Child_App_cgxe_registry.obj
 0001:00015ae0       _ssSetInputPortVectorDimension 0000000180016ae0 f   Child_App_cgxe_registry.obj
 0001:00015b90       _ssSetOutputPortVectorDimension 0000000180016b90 f   Child_App_cgxe_registry.obj
 0001:00015c40       ssIsRunTimeParamTunable    0000000180016c40 f   Child_App_cgxe_registry.obj
 0001:00015cb0       ssGetSFuncBlockHandle      0000000180016cb0 f   Child_App_cgxe_registry.obj
 0001:00015d20       _ssGetCallSystemNumFcnCallDestinations 0000000180016d20 f   Child_App_cgxe_registry.obj
 0001:00015d90       _ssGetCurrentInputPortWidth 0000000180016d90 f   Child_App_cgxe_registry.obj
 0001:00015ed0       _ssGetCurrentOutputPortWidth 0000000180016ed0 f   Child_App_cgxe_registry.obj
 0001:00016010       ssGetIsZeroCrossControlDisabled 0000000180017010 f   Child_App_cgxe_registry.obj
 0001:00016080       ssSetIsInputPortUsedForContZcSignal 0000000180017080 f   Child_App_cgxe_registry.obj
 0001:000160f0       ssSetZcSignalIsZcElementDisc 00000001800170f0 f   Child_App_cgxe_registry.obj
 0001:000161a0       ssSetZcSignalName          00000001800171a0 f   Child_App_cgxe_registry.obj
 0001:00016210       ssSetZcSignalWidth         0000000180017210 f   Child_App_cgxe_registry.obj
 0001:00016280       ssSetZcSignalZcEventType   0000000180017280 f   Child_App_cgxe_registry.obj
 0001:000162f0       ssSetZcSignalType          00000001800172f0 f   Child_App_cgxe_registry.obj
 0001:00016360       ssSetZcSignalZcTol         0000000180017360 f   Child_App_cgxe_registry.obj
 0001:000163d0       ssSetZcSignalNeedsEventNotification 00000001800173d0 f   Child_App_cgxe_registry.obj
 0001:00016440       ssCreateAndAddZcSignalInfo 0000000180017440 f   Child_App_cgxe_registry.obj
 0001:000164b0       ssCloneAndAddZcSignalInfo  00000001800174b0 f   Child_App_cgxe_registry.obj
 0001:00016520       ssGetNumZcSignals          0000000180017520 f   Child_App_cgxe_registry.obj
 0001:00016590       ssGetZcSignalVector        0000000180017590 f   Child_App_cgxe_registry.obj
 0001:00016600       ssGetZcSignalName          0000000180017600 f   Child_App_cgxe_registry.obj
 0001:00016670       ssGetZcSignalWidth         0000000180017670 f   Child_App_cgxe_registry.obj
 0001:000166e0       ssGetZcSignalZcEventType   00000001800176e0 f   Child_App_cgxe_registry.obj
 0001:00016750       ssGetZcSignalZcEvents      0000000180017750 f   Child_App_cgxe_registry.obj
 0001:000167c0       ssGetZcSignalType          00000001800177c0 f   Child_App_cgxe_registry.obj
 0001:00016830       ssGetZcSignalZcTol         0000000180017830 f   Child_App_cgxe_registry.obj
 0001:000168b0       ssGetZcSignalNeedsEventNotification 00000001800178b0 f   Child_App_cgxe_registry.obj
 0001:00016920       ssGetZcSignalIsZcElementDisc 0000000180017920 f   Child_App_cgxe_registry.obj
 0001:000169c0       ssGetIsInputPortElementContinuous 00000001800179c0 f   Child_App_cgxe_registry.obj
 0001:00016a60       _ssGetAbsTol               0000000180017a60 f   Child_App_cgxe_registry.obj
 0001:00016ad0       _ssSetStateAbsTol          0000000180017ad0 f   Child_App_cgxe_registry.obj
 0001:00016bb0       _ssSetInputPortReusableFcn 0000000180017bb0 f   Child_App_cgxe_registry.obj
 0001:00016cb0       _ssSetOutputPortReusableFcn 0000000180017cb0 f   Child_App_cgxe_registry.obj
 0001:00016db0       _ssSetSymbolicDimsSupport  0000000180017db0 f   Child_App_cgxe_registry.obj
 0001:00016e20       _ssRegisterSymbolicDimsExpr 0000000180017e20 f   Child_App_cgxe_registry.obj
 0001:00016ea0       _ssRegisterSymbolicDimsMATLABExpr 0000000180017ea0 f   Child_App_cgxe_registry.obj
 0001:00016f30       _ssRegisterSymbolicDims    0000000180017f30 f   Child_App_cgxe_registry.obj
 0001:00016fd0       _ssRegisterSymbolicDimsString 0000000180017fd0 f   Child_App_cgxe_registry.obj
 0001:00017050       _ssRegisterSymbolicDimsIntValue 0000000180018050 f   Child_App_cgxe_registry.obj
 0001:000170c0       _ssRegisterSymbolicEqualRelation 00000001800180c0 f   Child_App_cgxe_registry.obj
 0001:00017130       _ssRegisterSymbolicEqualValue 0000000180018130 f   Child_App_cgxe_registry.obj
 0001:000171a0       _ssAmendLeadingSymbolicDims 00000001800181a0 f   Child_App_cgxe_registry.obj
 0001:00017220       _ssAmendTrailingSymbolicDims 0000000180018220 f   Child_App_cgxe_registry.obj
 0001:000172a0       _ssRegisterSymbolicDimsPlus 00000001800182a0 f   Child_App_cgxe_registry.obj
 0001:00017320       _ssRegisterSymbolicDimsMinus 0000000180018320 f   Child_App_cgxe_registry.obj
 0001:000173a0       _ssRegisterSymbolicDimsMultiply 00000001800183a0 f   Child_App_cgxe_registry.obj
 0001:00017420       _ssRegisterSymbolicDimsDivide 0000000180018420 f   Child_App_cgxe_registry.obj
 0001:000174a0       _ssGetNumSymbolicDims      00000001800184a0 f   Child_App_cgxe_registry.obj
 0001:00017510       _ssGetSymbolicDim          0000000180018510 f   Child_App_cgxe_registry.obj
 0001:00017590       _ssSetInputPortSymbolicDimsId 0000000180018590 f   Child_App_cgxe_registry.obj
 0001:00017600       _ssGetCompInputPortSymbolicDimsId 0000000180018600 f   Child_App_cgxe_registry.obj
 0001:00017670       _ssSetCompInputPortSymbolicDimsId 0000000180018670 f   Child_App_cgxe_registry.obj
 0001:000176e0       _ssSetOutputPortSymbolicDimsId 00000001800186e0 f   Child_App_cgxe_registry.obj
 0001:00017750       _ssGetCompOutputPortSymbolicDimsId 0000000180018750 f   Child_App_cgxe_registry.obj
 0001:000177c0       _ssSetCompOutputPortSymbolicDimsId 00000001800187c0 f   Child_App_cgxe_registry.obj
 0001:00017830       _ssGetDWorkSymbolicDimsId  0000000180018830 f   Child_App_cgxe_registry.obj
 0001:000178a0       _ssSetDWorkSymbolicDimsId  00000001800188a0 f   Child_App_cgxe_registry.obj
 0001:00017910       _ssGetCompDWorkSymbolicDimsId 0000000180018910 f   Child_App_cgxe_registry.obj
 0001:00017980       _ssSetCompDWorkSymbolicDimsId 0000000180018980 f   Child_App_cgxe_registry.obj
 0001:000179f0       _ssCreateSLCGStringBuffer  00000001800189f0 f   Child_App_cgxe_registry.obj
 0001:00017a60       _ssAddToSLCGStringBuffer   0000000180018a60 f   Child_App_cgxe_registry.obj
 0001:00017ad0       _ssGetPointerContainedData 0000000180018ad0 f   Child_App_cgxe_registry.obj
 0001:00017b60       _ssGetPointerContainedDataWidth 0000000180018b60 f   Child_App_cgxe_registry.obj
 0001:00017bf0       _ssRegisterDynamicArrayDataTypeFcn 0000000180018bf0 f   Child_App_cgxe_registry.obj
 0001:00017c90       _ssGetDynamicArrayContainedDataCurrentWidthFcn 0000000180018c90 f   Child_App_cgxe_registry.obj
 0001:00017d60       _ssGetDynamicArrayContainedDataFcn 0000000180018d60 f   Child_App_cgxe_registry.obj
 0001:00017e30       _ssGetInputPortDynamicArrayDataFcn 0000000180018e30 f   Child_App_cgxe_registry.obj
 0001:00017ef0       _ssGetOutputPortDynamicArrayDataFcn 0000000180018ef0 f   Child_App_cgxe_registry.obj
 0001:00017fb0       _ssGetInputPortDynamicArrayContainedDataFcn 0000000180018fb0 f   Child_App_cgxe_registry.obj
 0001:00018070       _ssGetOutputPortDynamicArrayContainedDataFcn 0000000180019070 f   Child_App_cgxe_registry.obj
 0001:00018130       _ssGetDynamicArrayDWorkContainedDataFcn 0000000180019130 f   Child_App_cgxe_registry.obj
 0001:0001a550       __local_stdio_printf_options 000000018001b550 f i Child_App_cgxe_registry.obj
 0001:0001a560       _vsnprintf_l               000000018001b560 f i Child_App_cgxe_registry.obj
 0001:0001a5e0       _vsprintf_l                000000018001b5e0 f i Child_App_cgxe_registry.obj
 0001:0001a630       sprintf                    000000018001b630 f i Child_App_cgxe_registry.obj
 0001:0001a67f       mxSetCell_800              000000018001b67f f   libmx:libmx.dll
 0001:0001a685       mxSetFieldByNumber_800     000000018001b685 f   libmx:libmx.dll
 0001:0001a68b       mxCreateString_800         000000018001b68b f   libmx:libmx.dll
 0001:0001a691       mxCreateCellMatrix_800     000000018001b691 f   libmx:libmx.dll
 0001:0001a697       mxCreateStructMatrix_800   000000018001b697 f   libmx:libmx.dll
 0001:0001a69d       mxCalloc_800               000000018001b69d f   libmx:libmx.dll
 0001:0001a6a3       mxGetM_800                 000000018001b6a3 f   libmx:libmx.dll
 0001:0001a6a9       mxGetClassID_800           000000018001b6a9 f   libmx:libmx.dll
 0001:0001a6af       mxGetData_800              000000018001b6af f   libmx:libmx.dll
 0001:0001a6b5       mxIsNumeric_800            000000018001b6b5 f   libmx:libmx.dll
 0001:0001a6bb       mxIsChar_800               000000018001b6bb f   libmx:libmx.dll
 0001:0001a6c1       mxIsComplex_800            000000018001b6c1 f   libmx:libmx.dll
 0001:0001a6c7       mxGetN_800                 000000018001b6c7 f   libmx:libmx.dll
 0001:0001a6cd       mxGetPr_800                000000018001b6cd f   libmx:libmx.dll
 0001:0001a6d3       mxSetField_800             000000018001b6d3 f   libmx:libmx.dll
 0001:0001a6d9       mxCreateNumericMatrix_800  000000018001b6d9 f   libmx:libmx.dll
 0001:0001a6df       mxCreateDoubleMatrix_800   000000018001b6df f   libmx:libmx.dll
 0001:0001a6e5       mxCreateDoubleScalar_800   000000018001b6e5 f   libmx:libmx.dll
 0001:0001a6eb       mxGetString_800            000000018001b6eb f   libmx:libmx.dll
 0001:0001a6f1       mexWarnMsgTxt_800          000000018001b6f1 f   libmex:libmex.dll
 0001:0001a6f7       mexPrintf_800              000000018001b6f7 f   libmex:libmex.dll
 0001:0001a6fd       mexCallMATLAB_800          000000018001b6fd f   libmex:libmex.dll
 0001:0001a703       mexUnlock_800              000000018001b703 f   libmex:libmex.dll
 0001:0001a709       mexIsLocked_800            000000018001b709 f   libmex:libmex.dll
 0001:0001a70f       emlrtAlias                 000000018001b70f f   libemlrt:libemlrt.dll
 0001:0001a715       emlrtAssign                000000018001b715 f   libemlrt:libemlrt.dll
 0001:0001a71b       emlrtCreateStructMatrix    000000018001b71b f   libemlrt:libemlrt.dll
 0001:0001a721       emlrtGetFieldR2017b        000000018001b721 f   libemlrt:libemlrt.dll
 0001:0001a727       emlrtSetFieldR2017b        000000018001b727 f   libemlrt:libemlrt.dll
 0001:0001a72d       emlrtCreateCellMatrix      000000018001b72d f   libemlrt:libemlrt.dll
 0001:0001a733       emlrtSetCell               000000018001b733 f   libemlrt:libemlrt.dll
 0001:0001a739       emlrtGetCell               000000018001b739 f   libemlrt:libemlrt.dll
 0001:0001a73f       emlrtCreateNumericMatrix   000000018001b73f f   libemlrt:libemlrt.dll
 0001:0001a745       emlrtCreateLogicalScalar   000000018001b745 f   libemlrt:libemlrt.dll
 0001:0001a74b       emlrtCreateCharArray       000000018001b74b f   libemlrt:libemlrt.dll
 0001:0001a751       emlrtDestroyArray          000000018001b751 f   libemlrt:libemlrt.dll
 0001:0001a757       emlrtCallMATLABR2012b      000000018001b757 f   libemlrt:libemlrt.dll
 0001:0001a75d       emlrtInitCharArrayR2013a   000000018001b75d f   libemlrt:libemlrt.dll
 0001:0001a763       emlrtCheckBuiltInR2012b    000000018001b763 f   libemlrt:libemlrt.dll
 0001:0001a769       emlrtCheckStructR2012b     000000018001b769 f   libemlrt:libemlrt.dll
 0001:0001a76f       emlrtMxGetData             000000018001b76f f   libemlrt:libemlrt.dll
 0001:0001a775       emlrtMxGetLogicals         000000018001b775 f   libemlrt:libemlrt.dll
 0001:0001a77b       cgxertGetInputPortSignal   000000018001b77b f   libmwcgxert:libmwcgxert.dll
 0001:0001a781       cgxertGetRuntimeInstance   000000018001b781 f   libmwcgxert:libmwcgxert.dll
 0001:0001a787       cgxertSetRuntimeInstance   000000018001b787 f   libmwcgxert:libmwcgxert.dll
 0001:0001a78d       cgxertGetEMLRTCtx          000000018001b78d f   libmwcgxert:libmwcgxert.dll
 0001:0001a793       cgxertSetGcb               000000018001b793 f   libmwcgxert:libmwcgxert.dll
 0001:0001a799       cgxertRestoreGcb           000000018001b799 f   libmwcgxert:libmwcgxert.dll
 0001:0001a79f       cgxertGetOutputPortSignal  000000018001b79f f   libmwcgxert:libmwcgxert.dll
 0001:0001a7a8       __GSHandlerCheck           000000018001b7a8 f   MSVCRT:gshandler.obj
 0001:0001a7c8       __GSHandlerCheckCommon     000000018001b7c8 f   MSVCRT:gshandler.obj
 0001:0001a840       __security_check_cookie    000000018001b840 f   MSVCRT:amdsecgs.obj
 0001:0001a860       __raise_securityfailure    000000018001b860 f   MSVCRT:gs_report.obj
 0001:0001a894       __report_gsfailure         000000018001b894 f   MSVCRT:gs_report.obj
 0001:0001a968       __report_rangecheckfailure 000000018001b968 f   MSVCRT:gs_report.obj
 0001:0001a97c       __report_securityfailure   000000018001b97c f   MSVCRT:gs_report.obj
 0001:0001aa18       __report_securityfailureEx 000000018001ba18 f   MSVCRT:gs_report.obj
 0001:0001af48       _CRT_INIT                  000000018001bf48 f   MSVCRT:dll_dllmain.obj
 0001:0001af50       _DllMainCRTStartup         000000018001bf50 f   MSVCRT:dll_dllmain.obj
 0001:0001affc       __security_init_cookie     000000018001bffc f   MSVCRT:gs_support.obj
 0001:0001b0a8       DllMain                    000000018001c0a8 f   MSVCRT:dll_dllmain_stub.obj
 0001:0001b0cc       ?__scrt_initialize_type_info@@YAXXZ 000000018001c0cc f   MSVCRT:tncleanup.obj
 0001:0001b0dc       ?__scrt_uninitialize_type_info@@YAXXZ 000000018001c0dc f   MSVCRT:tncleanup.obj
 0001:0001b0e8       __local_stdio_scanf_options 000000018001c0e8 f i MSVCRT:default_local_stdio_options.obj
 0001:0001b0f0       __scrt_initialize_default_local_stdio_options 000000018001c0f0 f   MSVCRT:default_local_stdio_options.obj
 0001:0001b10c       ?configure_argv@__scrt_narrow_argv_policy@@SAHXZ 000000018001c10c f i MSVCRT:utility.obj
 0001:0001b16c       ?initialize_environment@__scrt_narrow_environment_policy@@SAHXZ 000000018001c16c f i MSVCRT:utility.obj
 0001:0001b1a4       NtCurrentTeb               000000018001c1a4 f i MSVCRT:utility.obj
 0001:0001b1b0       __scrt_acquire_startup_lock 000000018001c1b0 f   MSVCRT:utility.obj
 0001:0001b1ec       __scrt_dllmain_after_initialize_c 000000018001c1ec f   MSVCRT:utility.obj
 0001:0001b220       __scrt_dllmain_before_initialize_c 000000018001c220 f   MSVCRT:utility.obj
 0001:0001b238       __scrt_dllmain_crt_thread_attach 000000018001c238 f   MSVCRT:utility.obj
 0001:0001b260       __scrt_dllmain_crt_thread_detach 000000018001c260 f   MSVCRT:utility.obj
 0001:0001b278       __scrt_dllmain_exception_filter 000000018001c278 f   MSVCRT:utility.obj
 0001:0001b2d8       __scrt_dllmain_uninitialize_c 000000018001c2d8 f   MSVCRT:utility.obj
 0001:0001b308       __scrt_dllmain_uninitialize_critical 000000018001c308 f   MSVCRT:utility.obj
 0001:0001b31c       __scrt_initialize_crt      000000018001c31c f   MSVCRT:utility.obj
 0001:0001b368       __scrt_initialize_onexit_tables 000000018001c368 f   MSVCRT:utility.obj
 0001:0001b3f4       __scrt_is_nonwritable_in_current_image 000000018001c3f4 f   MSVCRT:utility.obj
 0001:0001b48c       __scrt_release_startup_lock 000000018001c48c f   MSVCRT:utility.obj
 0001:0001b4b0       __scrt_uninitialize_crt    000000018001c4b0 f   MSVCRT:utility.obj
 0001:0001b4dc       _onexit                    000000018001c4dc f   MSVCRT:utility.obj
 0001:0001b518       at_quick_exit              000000018001c518 f   MSVCRT:utility.obj
 0001:0001b538       atexit                     000000018001c538 f   MSVCRT:utility.obj
 0001:0001b550       __scrt_get_dyn_tls_init_callback 000000018001c550 f   MSVCRT:dyn_tls_init.obj
 0001:0001b558       __crt_debugger_hook        000000018001c558 f   MSVCRT:utility_desktop.obj
 0001:0001b560       __scrt_fastfail            000000018001c560 f   MSVCRT:utility_desktop.obj
 0001:0001b6ac       __scrt_get_show_window_mode 000000018001c6ac f   MSVCRT:utility_desktop.obj
 0001:0001b6e8       __scrt_initialize_mta      000000018001c6e8 f   MSVCRT:utility_desktop.obj
 0001:0001b6f0       __scrt_initialize_winrt    000000018001c6f0 f   MSVCRT:utility_desktop.obj
 0001:0001b6f4       __scrt_is_managed_app      000000018001c6f4 f   MSVCRT:utility_desktop.obj
 0001:0001b748       __scrt_set_unhandled_exception_filter 000000018001c748 f   MSVCRT:utility_desktop.obj
 0001:0001b758       __scrt_exe_initialize_mta  000000018001c758 f   MSVCRT:utility_desktop.obj
 0001:0001b758       __scrt_stub_for_initialize_mta 000000018001c758 f   MSVCRT:utility_desktop.obj
 0001:0001b75c       __scrt_unhandled_exception_filter 000000018001c75c f   MSVCRT:utility_desktop.obj
 0001:0001b7b8       _RTC_Initialize            000000018001c7b8 f   MSVCRT:initsect.obj
 0001:0001b7f4       _RTC_Terminate             000000018001c7f4 f   MSVCRT:initsect.obj
 0001:0001b830       _guard_check_icall_nop     000000018001c830 f i MSVCRT:guard_support.obj
 0001:0001b834       ReadNoFence64              000000018001c834 f i MSVCRT:guard_support.obj
 0001:0001b838       ReadPointerNoFence         000000018001c838 f i MSVCRT:guard_support.obj
 0001:0001b83c       __castguard_check_failure_debugbreak 000000018001c83c f i MSVCRT:guard_support.obj
 0001:0001b858       __castguard_check_failure_fastfail 000000018001c858 f i MSVCRT:guard_support.obj
 0001:0001b87c       __castguard_check_failure_nop 000000018001c87c f i MSVCRT:guard_support.obj
 0001:0001b880       __castguard_check_failure_os_handled 000000018001c880 f i MSVCRT:guard_support.obj
 0001:0001b8dc       __castguard_check_failure_user_handled 000000018001c8dc f i MSVCRT:guard_support.obj
 0001:0001b950       __castguard_set_user_handler 000000018001c950 f i MSVCRT:guard_support.obj
 0001:0001b95c       __castguard_slow_path_check_debugbreak 000000018001c95c f i MSVCRT:guard_support.obj
 0001:0001b990       __castguard_slow_path_check_fastfail 000000018001c990 f i MSVCRT:guard_support.obj
 0001:0001b9cc       __castguard_slow_path_check_nop 000000018001c9cc f i MSVCRT:guard_support.obj
 0001:0001b9d0       __castguard_slow_path_check_os_handled 000000018001c9d0 f i MSVCRT:guard_support.obj
 0001:0001ba24       __castguard_slow_path_check_user_handled 000000018001ca24 f i MSVCRT:guard_support.obj
 0001:0001ba90       _guard_icall_checks_enforced 000000018001ca90 f i MSVCRT:guard_support.obj
 0001:0001baa8       _guard_rf_checks_enforced  000000018001caa8 f i MSVCRT:guard_support.obj
 0001:0001baac       __isa_available_init       000000018001caac f   MSVCRT:cpu_disp.obj
 0001:0001bc58       _get_startup_argv_mode     000000018001cc58 f   MSVCRT:argv_mode.obj
 0001:0001bc60       __scrt_is_ucrt_dll_in_use  000000018001cc60 f   MSVCRT:ucrt_detection.obj
 0001:0001bc70       RtlCaptureContext          000000018001cc70 f   kernel32:KERNEL32.dll
 0001:0001bc76       RtlLookupFunctionEntry     000000018001cc76 f   kernel32:KERNEL32.dll
 0001:0001bc7c       RtlVirtualUnwind           000000018001cc7c f   kernel32:KERNEL32.dll
 0001:0001bc82       UnhandledExceptionFilter   000000018001cc82 f   kernel32:KERNEL32.dll
 0001:0001bc88       SetUnhandledExceptionFilter 000000018001cc88 f   kernel32:KERNEL32.dll
 0001:0001bc8e       GetCurrentProcess          000000018001cc8e f   kernel32:KERNEL32.dll
 0001:0001bc94       TerminateProcess           000000018001cc94 f   kernel32:KERNEL32.dll
 0001:0001bc9a       IsProcessorFeaturePresent  000000018001cc9a f   kernel32:KERNEL32.dll
 0001:0001bca0       QueryPerformanceCounter    000000018001cca0 f   kernel32:KERNEL32.dll
 0001:0001bca6       GetCurrentProcessId        000000018001cca6 f   kernel32:KERNEL32.dll
 0001:0001bcac       GetCurrentThreadId         000000018001ccac f   kernel32:KERNEL32.dll
 0001:0001bcb2       GetSystemTimeAsFileTime    000000018001ccb2 f   kernel32:KERNEL32.dll
 0001:0001bcb8       DisableThreadLibraryCalls  000000018001ccb8 f   kernel32:KERNEL32.dll
 0001:0001bcbe       InitializeSListHead        000000018001ccbe f   kernel32:KERNEL32.dll
 0001:0001bcc4       IsDebuggerPresent          000000018001ccc4 f   kernel32:KERNEL32.dll
 0001:0001bcca       GetStartupInfoW            000000018001ccca f   kernel32:KERNEL32.dll
 0001:0001bcd0       GetModuleHandleW           000000018001ccd0 f   kernel32:KERNEL32.dll
 0001:0001bcd6       memcpy                     000000018001ccd6 f   vcruntime:VCRUNTIME140.dll
 0001:0001bcdc       __C_specific_handler       000000018001ccdc f   vcruntime:VCRUNTIME140.dll
 0001:0001bce2       __std_type_info_destroy_list 000000018001cce2 f   vcruntime:VCRUNTIME140.dll
 0001:0001bce8       __current_exception        000000018001cce8 f   vcruntime:VCRUNTIME140.dll
 0001:0001bcee       __current_exception_context 000000018001ccee f   vcruntime:VCRUNTIME140.dll
 0001:0001bcf4       memset                     000000018001ccf4 f   vcruntime:VCRUNTIME140.dll
 0001:0001bcfa       calloc                     000000018001ccfa f   ucrt:api-ms-win-crt-heap-l1-1-0.dll
 0001:0001bd00       free                       000000018001cd00 f   ucrt:api-ms-win-crt-heap-l1-1-0.dll
 0001:0001bd06       strcmp                     000000018001cd06 f   ucrt:api-ms-win-crt-string-l1-1-0.dll
 0001:0001bd0c       strlen                     000000018001cd0c f   ucrt:api-ms-win-crt-string-l1-1-0.dll
 0001:0001bd12       __stdio_common_vsprintf    000000018001cd12 f   ucrt:api-ms-win-crt-stdio-l1-1-0.dll
 0001:0001bd18       malloc                     000000018001cd18 f   ucrt:api-ms-win-crt-heap-l1-1-0.dll
 0001:0001bd1e       _initterm                  000000018001cd1e f   ucrt:api-ms-win-crt-runtime-l1-1-0.dll
 0001:0001bd24       _initterm_e                000000018001cd24 f   ucrt:api-ms-win-crt-runtime-l1-1-0.dll
 0001:0001bd2a       _seh_filter_dll            000000018001cd2a f   ucrt:api-ms-win-crt-runtime-l1-1-0.dll
 0001:0001bd30       _configure_narrow_argv     000000018001cd30 f   ucrt:api-ms-win-crt-runtime-l1-1-0.dll
 0001:0001bd36       _initialize_narrow_environment 000000018001cd36 f   ucrt:api-ms-win-crt-runtime-l1-1-0.dll
 0001:0001bd3c       _initialize_onexit_table   000000018001cd3c f   ucrt:api-ms-win-crt-runtime-l1-1-0.dll
 0001:0001bd42       _register_onexit_function  000000018001cd42 f   ucrt:api-ms-win-crt-runtime-l1-1-0.dll
 0001:0001bd48       _execute_onexit_table      000000018001cd48 f   ucrt:api-ms-win-crt-runtime-l1-1-0.dll
 0001:0001bd4e       _crt_atexit                000000018001cd4e f   ucrt:api-ms-win-crt-runtime-l1-1-0.dll
 0001:0001bd54       _crt_at_quick_exit         000000018001cd54 f   ucrt:api-ms-win-crt-runtime-l1-1-0.dll
 0001:0001bd5a       _cexit                     000000018001cd5a f   ucrt:api-ms-win-crt-runtime-l1-1-0.dll
 0001:0001bd60       terminate                  000000018001cd60 f   ucrt:api-ms-win-crt-runtime-l1-1-0.dll
 0001:0001bd68       __acrt_initialize          000000018001cd68 f   MSVCRT:ucrt_stubs.obj
 0001:0001bd68       __scrt_stub_for_acrt_initialize 000000018001cd68 f   MSVCRT:ucrt_stubs.obj
 0001:0001bd68       __vcrt_initialize          000000018001cd68 f   MSVCRT:ucrt_stubs.obj
 0001:0001bd6c       __acrt_thread_attach       000000018001cd6c f   MSVCRT:ucrt_stubs.obj
 0001:0001bd6c       __scrt_stub_for_acrt_thread_attach 000000018001cd6c f   MSVCRT:ucrt_stubs.obj
 0001:0001bd6c       __vcrt_thread_attach       000000018001cd6c f   MSVCRT:ucrt_stubs.obj
 0001:0001bd70       __acrt_thread_detach       000000018001cd70 f   MSVCRT:ucrt_stubs.obj
 0001:0001bd70       __scrt_stub_for_acrt_thread_detach 000000018001cd70 f   MSVCRT:ucrt_stubs.obj
 0001:0001bd70       __vcrt_thread_detach       000000018001cd70 f   MSVCRT:ucrt_stubs.obj
 0001:0001bd74       __acrt_uninitialize        000000018001cd74 f   MSVCRT:ucrt_stubs.obj
 0001:0001bd74       __scrt_stub_for_acrt_uninitialize 000000018001cd74 f   MSVCRT:ucrt_stubs.obj
 0001:0001bd74       __vcrt_uninitialize        000000018001cd74 f   MSVCRT:ucrt_stubs.obj
 0001:0001bd78       __acrt_uninitialize_critical 000000018001cd78 f   MSVCRT:ucrt_stubs.obj
 0001:0001bd78       __scrt_stub_for_acrt_uninitialize_critical 000000018001cd78 f   MSVCRT:ucrt_stubs.obj
 0001:0001bd78       __vcrt_uninitialize_critical 000000018001cd78 f   MSVCRT:ucrt_stubs.obj
 0001:0001bd7c       __scrt_stub_for_is_c_termination_complete 000000018001cd7c f   MSVCRT:ucrt_stubs.obj
 0001:0001bd7c       _is_c_termination_complete 000000018001cd7c f   MSVCRT:ucrt_stubs.obj
 0001:0001bd90       _guard_dispatch_icall_nop  000000018001cd90 f   MSVCRT:guard_dispatch.obj
 0001:0001bdb0       _guard_xfg_dispatch_icall_nop 000000018001cdb0 f   MSVCRT:guard_xfg_dispatch.obj
 0002:00000000       __imp_GetCurrentThreadId   000000018001d000     kernel32:KERNEL32.dll
 0002:00000008       __imp_IsDebuggerPresent    000000018001d008     kernel32:KERNEL32.dll
 0002:00000010       __imp_GetStartupInfoW      000000018001d010     kernel32:KERNEL32.dll
 0002:00000018       __imp_RtlCaptureContext    000000018001d018     kernel32:KERNEL32.dll
 0002:00000020       __imp_RtlLookupFunctionEntry 000000018001d020     kernel32:KERNEL32.dll
 0002:00000028       __imp_RtlVirtualUnwind     000000018001d028     kernel32:KERNEL32.dll
 0002:00000030       __imp_UnhandledExceptionFilter 000000018001d030     kernel32:KERNEL32.dll
 0002:00000038       __imp_SetUnhandledExceptionFilter 000000018001d038     kernel32:KERNEL32.dll
 0002:00000040       __imp_GetCurrentProcess    000000018001d040     kernel32:KERNEL32.dll
 0002:00000048       __imp_TerminateProcess     000000018001d048     kernel32:KERNEL32.dll
 0002:00000050       __imp_IsProcessorFeaturePresent 000000018001d050     kernel32:KERNEL32.dll
 0002:00000058       __imp_QueryPerformanceCounter 000000018001d058     kernel32:KERNEL32.dll
 0002:00000060       __imp_GetCurrentProcessId  000000018001d060     kernel32:KERNEL32.dll
 0002:00000068       __imp_InitializeSListHead  000000018001d068     kernel32:KERNEL32.dll
 0002:00000070       __imp_GetSystemTimeAsFileTime 000000018001d070     kernel32:KERNEL32.dll
 0002:00000078       __imp_DisableThreadLibraryCalls 000000018001d078     kernel32:KERNEL32.dll
 0002:00000080       __imp_GetModuleHandleW     000000018001d080     kernel32:KERNEL32.dll
 0002:00000088       \177KERNEL32_NULL_THUNK_DATA 000000018001d088     kernel32:KERNEL32.dll
 0002:00000090       __imp___current_exception  000000018001d090     vcruntime:VCRUNTIME140.dll
 0002:00000098       __imp___std_type_info_destroy_list 000000018001d098     vcruntime:VCRUNTIME140.dll
 0002:000000a0       __imp___C_specific_handler 000000018001d0a0     vcruntime:VCRUNTIME140.dll
 0002:000000a8       __imp_memset               000000018001d0a8     vcruntime:VCRUNTIME140.dll
 0002:000000b0       __imp___current_exception_context 000000018001d0b0     vcruntime:VCRUNTIME140.dll
 0002:000000b8       __imp_memcpy               000000018001d0b8     vcruntime:VCRUNTIME140.dll
 0002:000000c0       \177VCRUNTIME140_NULL_THUNK_DATA 000000018001d0c0     vcruntime:VCRUNTIME140.dll
 0002:000000c8       __imp_calloc               000000018001d0c8     ucrt:api-ms-win-crt-heap-l1-1-0.dll
 0002:000000d0       __imp_malloc               000000018001d0d0     ucrt:api-ms-win-crt-heap-l1-1-0.dll
 0002:000000d8       __imp_free                 000000018001d0d8     ucrt:api-ms-win-crt-heap-l1-1-0.dll
 0002:000000e0       \177api-ms-win-crt-heap-l1-1-0_NULL_THUNK_DATA 000000018001d0e0     ucrt:api-ms-win-crt-heap-l1-1-0.dll
 0002:000000e8       __imp__seh_filter_dll      000000018001d0e8     ucrt:api-ms-win-crt-runtime-l1-1-0.dll
 0002:000000f0       __imp__configure_narrow_argv 000000018001d0f0     ucrt:api-ms-win-crt-runtime-l1-1-0.dll
 0002:000000f8       __imp__initialize_narrow_environment 000000018001d0f8     ucrt:api-ms-win-crt-runtime-l1-1-0.dll
 0002:00000100       __imp__initialize_onexit_table 000000018001d100     ucrt:api-ms-win-crt-runtime-l1-1-0.dll
 0002:00000108       __imp__initterm_e          000000018001d108     ucrt:api-ms-win-crt-runtime-l1-1-0.dll
 0002:00000110       __imp__execute_onexit_table 000000018001d110     ucrt:api-ms-win-crt-runtime-l1-1-0.dll
 0002:00000118       __imp__crt_atexit          000000018001d118     ucrt:api-ms-win-crt-runtime-l1-1-0.dll
 0002:00000120       __imp__crt_at_quick_exit   000000018001d120     ucrt:api-ms-win-crt-runtime-l1-1-0.dll
 0002:00000128       __imp__cexit               000000018001d128     ucrt:api-ms-win-crt-runtime-l1-1-0.dll
 0002:00000130       __imp_terminate            000000018001d130     ucrt:api-ms-win-crt-runtime-l1-1-0.dll
 0002:00000138       __imp__register_onexit_function 000000018001d138     ucrt:api-ms-win-crt-runtime-l1-1-0.dll
 0002:00000140       __imp__initterm            000000018001d140     ucrt:api-ms-win-crt-runtime-l1-1-0.dll
 0002:00000148       \177api-ms-win-crt-runtime-l1-1-0_NULL_THUNK_DATA 000000018001d148     ucrt:api-ms-win-crt-runtime-l1-1-0.dll
 0002:00000150       __imp___stdio_common_vsprintf 000000018001d150     ucrt:api-ms-win-crt-stdio-l1-1-0.dll
 0002:00000158       \177api-ms-win-crt-stdio-l1-1-0_NULL_THUNK_DATA 000000018001d158     ucrt:api-ms-win-crt-stdio-l1-1-0.dll
 0002:00000160       __imp_strlen               000000018001d160     ucrt:api-ms-win-crt-string-l1-1-0.dll
 0002:00000168       __imp_strcmp               000000018001d168     ucrt:api-ms-win-crt-string-l1-1-0.dll
 0002:00000170       \177api-ms-win-crt-string-l1-1-0_NULL_THUNK_DATA 000000018001d170     ucrt:api-ms-win-crt-string-l1-1-0.dll
 0002:00000178       __imp_emlrtMxGetLogicals   000000018001d178     libemlrt:libemlrt.dll
 0002:00000180       __imp_emlrtMxGetData       000000018001d180     libemlrt:libemlrt.dll
 0002:00000188       __imp_emlrtAlias           000000018001d188     libemlrt:libemlrt.dll
 0002:00000190       __imp_emlrtAssign          000000018001d190     libemlrt:libemlrt.dll
 0002:00000198       __imp_emlrtCreateStructMatrix 000000018001d198     libemlrt:libemlrt.dll
 0002:000001a0       __imp_emlrtCheckStructR2012b 000000018001d1a0     libemlrt:libemlrt.dll
 0002:000001a8       __imp_emlrtCheckBuiltInR2012b 000000018001d1a8     libemlrt:libemlrt.dll
 0002:000001b0       __imp_emlrtCallMATLABR2012b 000000018001d1b0     libemlrt:libemlrt.dll
 0002:000001b8       __imp_emlrtDestroyArray    000000018001d1b8     libemlrt:libemlrt.dll
 0002:000001c0       __imp_emlrtCreateCharArray 000000018001d1c0     libemlrt:libemlrt.dll
 0002:000001c8       __imp_emlrtCreateLogicalScalar 000000018001d1c8     libemlrt:libemlrt.dll
 0002:000001d0       __imp_emlrtCreateNumericMatrix 000000018001d1d0     libemlrt:libemlrt.dll
 0002:000001d8       __imp_emlrtGetCell         000000018001d1d8     libemlrt:libemlrt.dll
 0002:000001e0       __imp_emlrtSetCell         000000018001d1e0     libemlrt:libemlrt.dll
 0002:000001e8       __imp_emlrtCreateCellMatrix 000000018001d1e8     libemlrt:libemlrt.dll
 0002:000001f0       __imp_emlrtSetFieldR2017b  000000018001d1f0     libemlrt:libemlrt.dll
 0002:000001f8       __imp_emlrtGetFieldR2017b  000000018001d1f8     libemlrt:libemlrt.dll
 0002:00000200       __imp_emlrtInitCharArrayR2013a 000000018001d200     libemlrt:libemlrt.dll
 0002:00000208       \177libemlrt_NULL_THUNK_DATA 000000018001d208     libemlrt:libemlrt.dll
 0002:00000210       __imp_mexWarnMsgTxt_800    000000018001d210     libmex:libmex.dll
 0002:00000218       __imp_mexPrintf_800        000000018001d218     libmex:libmex.dll
 0002:00000220       __imp_mexIsLocked_800      000000018001d220     libmex:libmex.dll
 0002:00000228       __imp_mexUnlock_800        000000018001d228     libmex:libmex.dll
 0002:00000230       __imp_mexCallMATLAB_800    000000018001d230     libmex:libmex.dll
 0002:00000238       \177libmex_NULL_THUNK_DATA 000000018001d238     libmex:libmex.dll
 0002:00000240       __imp_cgxertGetEMLRTCtx    000000018001d240     libmwcgxert:libmwcgxert.dll
 0002:00000248       __imp_cgxertSetRuntimeInstance 000000018001d248     libmwcgxert:libmwcgxert.dll
 0002:00000250       __imp_cgxertGetRuntimeInstance 000000018001d250     libmwcgxert:libmwcgxert.dll
 0002:00000258       __imp_cgxertGetInputPortSignal 000000018001d258     libmwcgxert:libmwcgxert.dll
 0002:00000260       __imp_cgxertRestoreGcb     000000018001d260     libmwcgxert:libmwcgxert.dll
 0002:00000268       __imp_cgxertGetOutputPortSignal 000000018001d268     libmwcgxert:libmwcgxert.dll
 0002:00000270       __imp_cgxertSetGcb         000000018001d270     libmwcgxert:libmwcgxert.dll
 0002:00000278       \177libmwcgxert_NULL_THUNK_DATA 000000018001d278     libmwcgxert:libmwcgxert.dll
 0002:00000280       __imp_mxSetFieldByNumber_800 000000018001d280     libmx:libmx.dll
 0002:00000288       __imp_mxGetString_800      000000018001d288     libmx:libmx.dll
 0002:00000290       __imp_mxCreateDoubleScalar_800 000000018001d290     libmx:libmx.dll
 0002:00000298       __imp_mxCreateDoubleMatrix_800 000000018001d298     libmx:libmx.dll
 0002:000002a0       __imp_mxCreateNumericMatrix_800 000000018001d2a0     libmx:libmx.dll
 0002:000002a8       __imp_mxSetField_800       000000018001d2a8     libmx:libmx.dll
 0002:000002b0       __imp_mxGetPr_800          000000018001d2b0     libmx:libmx.dll
 0002:000002b8       __imp_mxGetN_800           000000018001d2b8     libmx:libmx.dll
 0002:000002c0       __imp_mxIsComplex_800      000000018001d2c0     libmx:libmx.dll
 0002:000002c8       __imp_mxIsChar_800         000000018001d2c8     libmx:libmx.dll
 0002:000002d0       __imp_mxIsNumeric_800      000000018001d2d0     libmx:libmx.dll
 0002:000002d8       __imp_mxGetData_800        000000018001d2d8     libmx:libmx.dll
 0002:000002e0       __imp_mxGetClassID_800     000000018001d2e0     libmx:libmx.dll
 0002:000002e8       __imp_mxGetM_800           000000018001d2e8     libmx:libmx.dll
 0002:000002f0       __imp_mxCalloc_800         000000018001d2f0     libmx:libmx.dll
 0002:000002f8       __imp_mxCreateStructMatrix_800 000000018001d2f8     libmx:libmx.dll
 0002:00000300       __imp_mxCreateCellMatrix_800 000000018001d300     libmx:libmx.dll
 0002:00000308       __imp_mxCreateString_800   000000018001d308     libmx:libmx.dll
 0002:00000310       __imp_mxSetCell_800        000000018001d310     libmx:libmx.dll
 0002:00000318       \177libmx_NULL_THUNK_DATA  000000018001d318     libmx:libmx.dll
 0002:00000320       __guard_check_icall_fptr   000000018001d320     MSVCRT:guard_support.obj
 0002:00000328       __guard_xfg_check_icall_fptr 000000018001d328     MSVCRT:guard_support.obj
 0002:00000330       __guard_dispatch_icall_fptr 000000018001d330     MSVCRT:guard_support.obj
 0002:00000338       __guard_xfg_dispatch_icall_fptr 000000018001d338     MSVCRT:guard_support.obj
 0002:00000340       __guard_xfg_table_dispatch_icall_fptr 000000018001d340     MSVCRT:guard_support.obj
 0002:00000348       __castguard_check_failure_os_handled_fptr 000000018001d348     MSVCRT:guard_support.obj
 0002:00000350       __guard_memcpy_fptr        000000018001d350     vcruntime:softmemtag.obj
 0002:00000358       __xc_a                     000000018001d358     MSVCRT:initializers.obj
 0002:00000360       __xc_z                     000000018001d360     MSVCRT:initializers.obj
 0002:00000368       __xi_a                     000000018001d368     MSVCRT:initializers.obj
 0002:00000370       __xi_z                     000000018001d370     MSVCRT:initializers.obj
 0002:00000378       __xp_a                     000000018001d378     MSVCRT:initializers.obj
 0002:00000380       __xp_z                     000000018001d380     MSVCRT:initializers.obj
 0002:00000388       __xt_a                     000000018001d388     MSVCRT:initializers.obj
 0002:00000390       __xt_z                     000000018001d390     MSVCRT:initializers.obj
 0002:00000710       DYNAMIC_DIMENSION_DEF      000000018001d710     Child_App_cgxe_registry.obj
 0002:00000728       __real@0000000000000000    000000018001d728     Child_App_cgxe_registry.obj
 0002:00000730       __real@4010000000000000    000000018001d730     Child_App_cgxe_registry.obj
 0002:00000738       __real@41602cbca0000000    000000018001d738     Child_App_cgxe_registry.obj
 0002:00000740       __real@41b1fb9a07000000    000000018001d740     Child_App_cgxe_registry.obj
 0002:00000748       __real@41b41e7072000000    000000018001d748     Child_App_cgxe_registry.obj
 0002:00000750       __real@41b442483e000000    000000018001d750     Child_App_cgxe_registry.obj
 0002:00000758       __real@41c917afbe800000    000000018001d758     Child_App_cgxe_registry.obj
 0002:00000760       __real@41d5e1b371400000    000000018001d760     Child_App_cgxe_registry.obj
 0002:00000768       __real@41dc67f553c00000    000000018001d768     Child_App_cgxe_registry.obj
 0002:00000770       __real@41e13401bfc00000    000000018001d770     Child_App_cgxe_registry.obj
 0002:00000778       __real@41e2069ed9a00000    000000018001d778     Child_App_cgxe_registry.obj
 0002:00000780       __real@41e3ec1b35c00000    000000018001d780     Child_App_cgxe_registry.obj
 0002:00000788       __real@41e5b0b712600000    000000018001d788     Child_App_cgxe_registry.obj
 0002:00000790       __real@41e5ff38b5000000    000000018001d790     Child_App_cgxe_registry.obj
 0002:00000798       __real@41e7cdc630800000    000000018001d798     Child_App_cgxe_registry.obj
 0002:000007a0       __real@41e8a3ca1ca00000    000000018001d7a0     Child_App_cgxe_registry.obj
 0002:000007a8       __real@41ee2c7a49000000    000000018001d7a8     Child_App_cgxe_registry.obj
 0002:000007b0       __real@41ee8ee109a00000    000000018001d7b0     Child_App_cgxe_registry.obj
 0002:000007b8       __real@41efb06ae7c00000    000000018001d7b8     Child_App_cgxe_registry.obj
 0002:000007c0       __real@bff0000000000000    000000018001d7c0     Child_App_cgxe_registry.obj
 0002:000007d8       _pDefaultRawDllMain        000000018001d7d8     MSVCRT:dll_dllmain.obj
 0002:000007d8       _pRawDllMain               000000018001d7d8     MSVCRT:dll_dllmain.obj
 0002:000007e0       __xmm@ffffffffffffffffffffffffffffffff 000000018001d7e0     MSVCRT:utility.obj
 0002:000007f0       _load_config_used          000000018001d7f0     MSVCRT:loadcfg.obj
 0002:00000980       __CastGuardVftablesStart   000000018001d980     MSVCRT:guard_support.obj
 0002:00000a00       __CastGuardVftablesEnd     000000018001da00     MSVCRT:guard_support.obj
 0002:00000a80       __volatile_metadata        000000018001da80     <linker-defined>
 0002:00000f20       __rtc_iaa                  000000018001df20     MSVCRT:initsect.obj
 0002:00000f28       __rtc_izz                  000000018001df28     MSVCRT:initsect.obj
 0002:00000f30       __rtc_taa                  000000018001df30     MSVCRT:initsect.obj
 0002:00000f38       __rtc_tzz                  000000018001df38     MSVCRT:initsect.obj
 0002:000022b8       __IMPORT_DESCRIPTOR_libmx  000000018001f2b8     libmx:libmx.dll
 0002:000022cc       __IMPORT_DESCRIPTOR_libmex 000000018001f2cc     libmex:libmex.dll
 0002:000022e0       __IMPORT_DESCRIPTOR_libemlrt 000000018001f2e0     libemlrt:libemlrt.dll
 0002:000022f4       __IMPORT_DESCRIPTOR_libmwcgxert 000000018001f2f4     libmwcgxert:libmwcgxert.dll
 0002:00002308       __IMPORT_DESCRIPTOR_KERNEL32 000000018001f308     kernel32:KERNEL32.dll
 0002:0000231c       __IMPORT_DESCRIPTOR_VCRUNTIME140 000000018001f31c     vcruntime:VCRUNTIME140.dll
 0002:00002330       __IMPORT_DESCRIPTOR_api-ms-win-crt-heap-l1-1-0 000000018001f330     ucrt:api-ms-win-crt-heap-l1-1-0.dll
 0002:00002344       __IMPORT_DESCRIPTOR_api-ms-win-crt-string-l1-1-0 000000018001f344     ucrt:api-ms-win-crt-string-l1-1-0.dll
 0002:00002358       __IMPORT_DESCRIPTOR_api-ms-win-crt-stdio-l1-1-0 000000018001f358     ucrt:api-ms-win-crt-stdio-l1-1-0.dll
 0002:0000236c       __IMPORT_DESCRIPTOR_api-ms-win-crt-runtime-l1-1-0 000000018001f36c     ucrt:api-ms-win-crt-runtime-l1-1-0.dll
 0002:00002380       __NULL_IMPORT_DESCRIPTOR   000000018001f380     libmx:libmx.dll
 0003:000036b0       DYNAMIC_DIMENSION          00000001800236b0     Child_App_cgxe_registry.obj
 0003:00005a80       __security_cookie_complement 0000000180025a80     MSVCRT:gs_cookie.obj
 0003:00005a88       __security_cookie          0000000180025a88     MSVCRT:gs_cookie.obj
 0003:00005a90       _fltused                   0000000180025a90     MSVCRT:fltused.obj
 0003:00005a94       __scrt_native_dllmain_reason 0000000180025a94     MSVCRT:utility.obj
 0003:00005a98       __isa_available            0000000180025a98     MSVCRT:cpu_disp.obj
 0003:00005a9c       __isa_enabled              0000000180025a9c     MSVCRT:cpu_disp.obj
 0003:00005aa0       __memset_fast_string_threshold 0000000180025aa0     MSVCRT:cpu_disp.obj
 0003:00005aa8       __memset_nt_threshold      0000000180025aa8     MSVCRT:cpu_disp.obj
 0003:00005ab0       __scrt_ucrt_dll_is_in_use  0000000180025ab0     MSVCRT:ucrt_stubs.obj
 0003:000060a0       ?__type_info_root_node@@3U__type_info_node@@A 00000001800260a0     MSVCRT:tncleanup.obj
 0003:000060b0       ?_OptionsStorage@?1??__local_stdio_printf_options@@9@4_KA 00000001800260b0     MSVCRT:default_local_stdio_options.obj
 0003:000060b8       ?_OptionsStorage@?1??__local_stdio_scanf_options@@9@4_KA 00000001800260b8     MSVCRT:default_local_stdio_options.obj
 0003:000060c0       __scrt_current_native_startup_state 00000001800260c0     MSVCRT:utility.obj
 0003:000060c8       __scrt_native_startup_lock 00000001800260c8     MSVCRT:utility.obj
 0003:00006108       __scrt_debugger_hook_flag  0000000180026108     MSVCRT:utility_desktop.obj
 0003:00006110       __castguard_check_failure_user_handled_fptr 0000000180026110     MSVCRT:guard_support.obj
 0003:00006118       __favor                    0000000180026118     MSVCRT:cpu_disp.obj
 0003:00006120       ?_OptionsStorage@?1??__local_stdio_printf_options@@9@9 0000000180026120     <common>
 0003:00006128       __dyn_tls_init_callback    0000000180026128     <common>

 entry point at        0001:0001af50

 Static symbols

 0000:00000000       .debug$S                   0000000180000000     Child_App_cgxe.exp
 0000:00000000       _volmd                     0000000180000000     Child_App_cgxe_registry.obj
 0000:00000000       _volmd                     0000000180000000     m_0IWK4xPALvAwGYJfiJSKHC.obj
 0000:00000000       _volmd                     0000000180000000     m_DH3jGOJ4u96z2aK3hkI3OE.obj
 0000:00000000       _volmd                     0000000180000000     m_E5eYYMYEC9250ATstCUIJE.obj
 0000:00000000       _volmd                     0000000180000000     m_KDwHGQ2xXp4wmWKPmnDGqC.obj
 0000:00000000       _volmd                     0000000180000000     m_KfaDhNL7xJVG1u0RUxB9sH.obj
 0000:00000000       _volmd                     0000000180000000     m_N6wSUtJycDbE8bKJByzvlC.obj
 0000:00000000       _volmd                     0000000180000000     m_nyucgZWjM3Ai1CT2jftVoF.obj
 0000:00000000       _volmd                     0000000180000000     m_r9npojpcpE1nIt6wcZfq3F.obj
 0000:00000000       _volmd                     0000000180000000     m_rv2q6Si9yo15c6LurhHJ.obj
 0000:00000000       _volmd                     0000000180000000     m_zBcJJKdPFoobubnOzm2A4C.obj
 0000:00000000       .debug$S                   0000000180000000     ucrt:api-ms-win-crt-heap-l1-1-0.dll
 0000:00000000       .debug$S                   0000000180000000     ucrt:api-ms-win-crt-heap-l1-1-0.dll
 0000:00000000       .debug$S                   0000000180000000     ucrt:api-ms-win-crt-heap-l1-1-0.dll
 0000:00000000       .debug$S                   0000000180000000     ucrt:api-ms-win-crt-runtime-l1-1-0.dll
 0000:00000000       .debug$S                   0000000180000000     ucrt:api-ms-win-crt-runtime-l1-1-0.dll
 0000:00000000       .debug$S                   0000000180000000     ucrt:api-ms-win-crt-runtime-l1-1-0.dll
 0000:00000000       .debug$S                   0000000180000000     ucrt:api-ms-win-crt-runtime-l1-1-0.dll
 0000:00000000       .debug$S                   0000000180000000     ucrt:api-ms-win-crt-runtime-l1-1-0.dll
 0000:00000000       .debug$S                   0000000180000000     ucrt:api-ms-win-crt-runtime-l1-1-0.dll
 0000:00000000       .debug$S                   0000000180000000     ucrt:api-ms-win-crt-runtime-l1-1-0.dll
 0000:00000000       .debug$S                   0000000180000000     ucrt:api-ms-win-crt-runtime-l1-1-0.dll
 0000:00000000       .debug$S                   0000000180000000     ucrt:api-ms-win-crt-runtime-l1-1-0.dll
 0000:00000000       .debug$S                   0000000180000000     ucrt:api-ms-win-crt-runtime-l1-1-0.dll
 0000:00000000       .debug$S                   0000000180000000     ucrt:api-ms-win-crt-runtime-l1-1-0.dll
 0000:00000000       .debug$S                   0000000180000000     ucrt:api-ms-win-crt-runtime-l1-1-0.dll
 0000:00000000       .debug$S                   0000000180000000     ucrt:api-ms-win-crt-stdio-l1-1-0.dll
 0000:00000000       .debug$S                   0000000180000000     ucrt:api-ms-win-crt-string-l1-1-0.dll
 0000:00000000       .debug$S                   0000000180000000     ucrt:api-ms-win-crt-string-l1-1-0.dll
 0000:00000000       .debug$S                   0000000180000000     kernel32:KERNEL32.dll
 0000:00000000       .debug$S                   0000000180000000     kernel32:KERNEL32.dll
 0000:00000000       .debug$S                   0000000180000000     kernel32:KERNEL32.dll
 0000:00000000       .debug$S                   0000000180000000     kernel32:KERNEL32.dll
 0000:00000000       .debug$S                   0000000180000000     kernel32:KERNEL32.dll
 0000:00000000       .debug$S                   0000000180000000     kernel32:KERNEL32.dll
 0000:00000000       .debug$S                   0000000180000000     kernel32:KERNEL32.dll
 0000:00000000       .debug$S                   0000000180000000     kernel32:KERNEL32.dll
 0000:00000000       .debug$S                   0000000180000000     kernel32:KERNEL32.dll
 0000:00000000       .debug$S                   0000000180000000     kernel32:KERNEL32.dll
 0000:00000000       .debug$S                   0000000180000000     kernel32:KERNEL32.dll
 0000:00000000       .debug$S                   0000000180000000     kernel32:KERNEL32.dll
 0000:00000000       .debug$S                   0000000180000000     kernel32:KERNEL32.dll
 0000:00000000       .debug$S                   0000000180000000     kernel32:KERNEL32.dll
 0000:00000000       .debug$S                   0000000180000000     kernel32:KERNEL32.dll
 0000:00000000       .debug$S                   0000000180000000     kernel32:KERNEL32.dll
 0000:00000000       .debug$S                   0000000180000000     kernel32:KERNEL32.dll
 0000:00000000       .debug$S                   0000000180000000     libemlrt:libemlrt.dll
 0000:00000000       .debug$S                   0000000180000000     libemlrt:libemlrt.dll
 0000:00000000       .debug$S                   0000000180000000     libemlrt:libemlrt.dll
 0000:00000000       .debug$S                   0000000180000000     libemlrt:libemlrt.dll
 0000:00000000       .debug$S                   0000000180000000     libemlrt:libemlrt.dll
 0000:00000000       .debug$S                   0000000180000000     libemlrt:libemlrt.dll
 0000:00000000       .debug$S                   0000000180000000     libemlrt:libemlrt.dll
 0000:00000000       .debug$S                   0000000180000000     libemlrt:libemlrt.dll
 0000:00000000       .debug$S                   0000000180000000     libemlrt:libemlrt.dll
 0000:00000000       .debug$S                   0000000180000000     libemlrt:libemlrt.dll
 0000:00000000       .debug$S                   0000000180000000     libemlrt:libemlrt.dll
 0000:00000000       .debug$S                   0000000180000000     libemlrt:libemlrt.dll
 0000:00000000       .debug$S                   0000000180000000     libemlrt:libemlrt.dll
 0000:00000000       .debug$S                   0000000180000000     libemlrt:libemlrt.dll
 0000:00000000       .debug$S                   0000000180000000     libemlrt:libemlrt.dll
 0000:00000000       .debug$S                   0000000180000000     libemlrt:libemlrt.dll
 0000:00000000       .debug$S                   0000000180000000     libemlrt:libemlrt.dll
 0000:00000000       .debug$S                   0000000180000000     libemlrt:libemlrt.dll
 0000:00000000       .debug$S                   0000000180000000     libmex:libmex.dll
 0000:00000000       .debug$S                   0000000180000000     libmex:libmex.dll
 0000:00000000       .debug$S                   0000000180000000     libmex:libmex.dll
 0000:00000000       .debug$S                   0000000180000000     libmex:libmex.dll
 0000:00000000       .debug$S                   0000000180000000     libmex:libmex.dll
 0000:00000000       .debug$S                   0000000180000000     libmwcgxert:libmwcgxert.dll
 0000:00000000       .debug$S                   0000000180000000     libmwcgxert:libmwcgxert.dll
 0000:00000000       .debug$S                   0000000180000000     libmwcgxert:libmwcgxert.dll
 0000:00000000       .debug$S                   0000000180000000     libmwcgxert:libmwcgxert.dll
 0000:00000000       .debug$S                   0000000180000000     libmwcgxert:libmwcgxert.dll
 0000:00000000       .debug$S                   0000000180000000     libmwcgxert:libmwcgxert.dll
 0000:00000000       .debug$S                   0000000180000000     libmwcgxert:libmwcgxert.dll
 0000:00000000       .debug$S                   0000000180000000     libmx:libmx.dll
 0000:00000000       .debug$S                   0000000180000000     libmx:libmx.dll
 0000:00000000       .debug$S                   0000000180000000     libmx:libmx.dll
 0000:00000000       .debug$S                   0000000180000000     libmx:libmx.dll
 0000:00000000       .debug$S                   0000000180000000     libmx:libmx.dll
 0000:00000000       .debug$S                   0000000180000000     libmx:libmx.dll
 0000:00000000       .debug$S                   0000000180000000     libmx:libmx.dll
 0000:00000000       .debug$S                   0000000180000000     libmx:libmx.dll
 0000:00000000       .debug$S                   0000000180000000     libmx:libmx.dll
 0000:00000000       .debug$S                   0000000180000000     libmx:libmx.dll
 0000:00000000       .debug$S                   0000000180000000     libmx:libmx.dll
 0000:00000000       .debug$S                   0000000180000000     libmx:libmx.dll
 0000:00000000       .debug$S                   0000000180000000     libmx:libmx.dll
 0000:00000000       .debug$S                   0000000180000000     libmx:libmx.dll
 0000:00000000       .debug$S                   0000000180000000     libmx:libmx.dll
 0000:00000000       .debug$S                   0000000180000000     libmx:libmx.dll
 0000:00000000       .debug$S                   0000000180000000     libmx:libmx.dll
 0000:00000000       .debug$S                   0000000180000000     libmx:libmx.dll
 0000:00000000       .debug$S                   0000000180000000     libmx:libmx.dll
 0000:00000000       _volmd                     0000000180000000     MSVCRT:cpu_disp.obj
 0002:fffe3000       __guard_ehcont_?dllmain_dispatch@@YAHQEAUHINSTANCE__@@KQEAX@Z 0000000180000000     MSVCRT:dll_dllmain.obj
 0002:fffe3000       __guard_fids_?dllmain_dispatch@@YAHQEAUHINSTANCE__@@KQEAX@Z 0000000180000000     MSVCRT:dll_dllmain.obj
 0000:00000000       _volmd                     0000000180000000     MSVCRT:gs_report.obj
 0000:00000000       _volmd                     0000000180000000     MSVCRT:gs_report.obj
 0000:00000000       _volmd                     0000000180000000     MSVCRT:gs_report.obj
 0002:fffe3000       __guard_fids__             0000000180000000     MSVCRT:guard_support.obj
 0002:fffe3000       __guard_fids__             0000000180000000     MSVCRT:guard_support.obj
 0002:fffe3000       __guard_fids__guard_icall_checks_enforced 0000000180000000     MSVCRT:guard_support.obj
 0000:00000000       _volmd                     0000000180000000     MSVCRT:guard_support.obj
 0000:00000000       _volmd                     0000000180000000     MSVCRT:guard_support.obj
 0000:00000000       _volmd                     0000000180000000     MSVCRT:guard_support.obj
 0000:00000000       _volmd                     0000000180000000     MSVCRT:guard_support.obj
 0000:00000000       _volmd                     0000000180000000     MSVCRT:guard_support.obj
 0000:00000000       _volmd                     0000000180000000     MSVCRT:guard_support.obj
 0000:00000000       _volmd                     0000000180000000     MSVCRT:guard_support.obj
 0000:00000000       _volmd                     0000000180000000     MSVCRT:guard_support.obj
 0000:00000000       _volmd                     0000000180000000     MSVCRT:guard_support.obj
 0000:00000000       _volmd                     0000000180000000     MSVCRT:guard_support.obj
 0002:fffe3000       __guard_ehcont___scrt_is_nonwritable_in_current_image 0000000180000000     MSVCRT:utility.obj
 0000:00000000       _volmd                     0000000180000000     MSVCRT:utility.obj
 0000:00000000       _volmd                     0000000180000000     MSVCRT:utility.obj
 0000:00000000       _volmd                     0000000180000000     MSVCRT:utility.obj
 0002:fffe3000       __guard_fids___scrt_set_unhandled_exception_filter 0000000180000000     MSVCRT:utility_desktop.obj
 0000:00000000       _volmd                     0000000180000000     MSVCRT:utility_desktop.obj
 0002:fffe3000       __guard_fids__             0000000180000000     vcruntime:softmemtag.obj
 0000:00000000       .debug$S                   0000000180000000     vcruntime:VCRUNTIME140.dll
 0000:00000000       .debug$S                   0000000180000000     vcruntime:VCRUNTIME140.dll
 0000:00000000       .debug$S                   0000000180000000     vcruntime:VCRUNTIME140.dll
 0000:00000000       .debug$S                   0000000180000000     vcruntime:VCRUNTIME140.dll
 0000:00000000       .debug$S                   0000000180000000     vcruntime:VCRUNTIME140.dll
 0000:00000000       .debug$S                   0000000180000000     vcruntime:VCRUNTIME140.dll
 0000:00000010       _volmd                     0000000180000010     Child_App_cgxe_registry.obj
 0000:00000010       _volmd                     0000000180000010     m_0IWK4xPALvAwGYJfiJSKHC.obj
 0000:00000010       _volmd                     0000000180000010     m_DH3jGOJ4u96z2aK3hkI3OE.obj
 0000:00000010       _volmd                     0000000180000010     m_E5eYYMYEC9250ATstCUIJE.obj
 0000:00000010       _volmd                     0000000180000010     m_KDwHGQ2xXp4wmWKPmnDGqC.obj
 0000:00000010       _volmd                     0000000180000010     m_KfaDhNL7xJVG1u0RUxB9sH.obj
 0000:00000010       _volmd                     0000000180000010     m_N6wSUtJycDbE8bKJByzvlC.obj
 0000:00000010       _volmd                     0000000180000010     m_nyucgZWjM3Ai1CT2jftVoF.obj
 0000:00000010       _volmd                     0000000180000010     m_r9npojpcpE1nIt6wcZfq3F.obj
 0000:00000010       _volmd                     0000000180000010     m_rv2q6Si9yo15c6LurhHJ.obj
 0000:00000010       _volmd                     0000000180000010     m_zBcJJKdPFoobubnOzm2A4C.obj
 0000:00000020       _volmd                     0000000180000020     Child_App_cgxe_registry.obj
 0000:00000020       _volmd                     0000000180000020     m_0IWK4xPALvAwGYJfiJSKHC.obj
 0000:00000020       _volmd                     0000000180000020     m_DH3jGOJ4u96z2aK3hkI3OE.obj
 0000:00000020       _volmd                     0000000180000020     m_E5eYYMYEC9250ATstCUIJE.obj
 0000:00000020       _volmd                     0000000180000020     m_KDwHGQ2xXp4wmWKPmnDGqC.obj
 0000:00000020       _volmd                     0000000180000020     m_KfaDhNL7xJVG1u0RUxB9sH.obj
 0000:00000020       _volmd                     0000000180000020     m_N6wSUtJycDbE8bKJByzvlC.obj
 0000:00000020       _volmd                     0000000180000020     m_nyucgZWjM3Ai1CT2jftVoF.obj
 0000:00000020       _volmd                     0000000180000020     m_r9npojpcpE1nIt6wcZfq3F.obj
 0000:00000020       _volmd                     0000000180000020     m_rv2q6Si9yo15c6LurhHJ.obj
 0000:00000020       _volmd                     0000000180000020     m_zBcJJKdPFoobubnOzm2A4C.obj
 0000:00000030       _volmd                     0000000180000030     Child_App_cgxe_registry.obj
 0000:00000030       _volmd                     0000000180000030     m_DH3jGOJ4u96z2aK3hkI3OE.obj
 0000:00000040       _volmd                     0000000180000040     Child_App_cgxe_registry.obj
 0000:00000040       _volmd                     0000000180000040     m_DH3jGOJ4u96z2aK3hkI3OE.obj
 0000:00000050       _volmd                     0000000180000050     Child_App_cgxe_registry.obj
 0000:00000060       _volmd                     0000000180000060     Child_App_cgxe_registry.obj
 0000:00000070       _volmd                     0000000180000070     Child_App_cgxe_registry.obj
 0000:00000080       _volmd                     0000000180000080     Child_App_cgxe_registry.obj
 0000:00000090       _volmd                     0000000180000090     Child_App_cgxe_registry.obj
 0000:000000a0       _volmd                     00000001800000a0     Child_App_cgxe_registry.obj
 0000:000000b0       _volmd                     00000001800000b0     Child_App_cgxe_registry.obj
 0000:000000c0       _volmd                     00000001800000c0     Child_App_cgxe_registry.obj
 0000:000000d0       _volmd                     00000001800000d0     Child_App_cgxe_registry.obj
 0000:000000e0       _volmd                     00000001800000e0     Child_App_cgxe_registry.obj
 0001:000005c0       cgxe_mdl_start             00000001800015c0 f   m_r9npojpcpE1nIt6wcZfq3F.obj
 0001:00000650       cgxe_mdl_initialize        0000000180001650 f   m_r9npojpcpE1nIt6wcZfq3F.obj
 0001:000006d0       cgxe_mdl_outputs           00000001800016d0 f   m_r9npojpcpE1nIt6wcZfq3F.obj
 0001:00000750       cgxe_mdl_update            0000000180001750 f   m_r9npojpcpE1nIt6wcZfq3F.obj
 0001:00000760       cgxe_mdl_enable            0000000180001760 f   m_r9npojpcpE1nIt6wcZfq3F.obj
 0001:00000770       cgxe_mdl_disable           0000000180001770 f   m_r9npojpcpE1nIt6wcZfq3F.obj
 0001:00000780       cgxe_mdl_terminate         0000000180001780 f   m_r9npojpcpE1nIt6wcZfq3F.obj
 0001:000007d0       mw__internal__call__setup  00000001800017d0 f   m_r9npojpcpE1nIt6wcZfq3F.obj
 0001:000008c0       SystemCore_setup           00000001800018c0 f   m_r9npojpcpE1nIt6wcZfq3F.obj
 0001:00000b70       mw__internal__call__reset  0000000180001b70 f   m_r9npojpcpE1nIt6wcZfq3F.obj
 0001:00000ec0       mw__internal__call__step   0000000180001ec0 f   m_r9npojpcpE1nIt6wcZfq3F.obj
 0001:00001280       emlrt_marshallOut          0000000180002280 f   m_r9npojpcpE1nIt6wcZfq3F.obj
 0001:000013d0       cgxe_mdl_get_sim_state     00000001800023d0 f   m_r9npojpcpE1nIt6wcZfq3F.obj
 0001:00001410       emlrt_marshallIn           0000000180002410 f   m_r9npojpcpE1nIt6wcZfq3F.obj
 0001:000014e0       b_emlrt_marshallIn         00000001800024e0 f   m_r9npojpcpE1nIt6wcZfq3F.obj
 0001:00001550       c_emlrt_marshallIn         0000000180002550 f   m_r9npojpcpE1nIt6wcZfq3F.obj
 0001:00001630       d_emlrt_marshallIn         0000000180002630 f   m_r9npojpcpE1nIt6wcZfq3F.obj
 0001:00001680       e_emlrt_marshallIn         0000000180002680 f   m_r9npojpcpE1nIt6wcZfq3F.obj
 0001:000016f0       f_emlrt_marshallIn         00000001800026f0 f   m_r9npojpcpE1nIt6wcZfq3F.obj
 0001:00001740       cgxe_mdl_set_sim_state     0000000180002740 f   m_r9npojpcpE1nIt6wcZfq3F.obj
 0001:000017b0       message                    00000001800027b0 f   m_r9npojpcpE1nIt6wcZfq3F.obj
 0001:00001850       getString                  0000000180002850 f   m_r9npojpcpE1nIt6wcZfq3F.obj
 0001:000018c0       error                      00000001800028c0 f   m_r9npojpcpE1nIt6wcZfq3F.obj
 0001:00001950       g_emlrt_marshallIn         0000000180002950 f   m_r9npojpcpE1nIt6wcZfq3F.obj
 0001:000019c0       h_emlrt_marshallIn         00000001800029c0 f   m_r9npojpcpE1nIt6wcZfq3F.obj
 0001:00001a40       init_simulink_io_address   0000000180002a40 f   m_r9npojpcpE1nIt6wcZfq3F.obj
 0001:00001a90       mdlOutputs_r9npojpcpE1nIt6wcZfq3F 0000000180002a90 f   m_r9npojpcpE1nIt6wcZfq3F.obj
 0001:00001ad0       mdlInitialize_r9npojpcpE1nIt6wcZfq3F 0000000180002ad0 f   m_r9npojpcpE1nIt6wcZfq3F.obj
 0001:00001b00       mdlUpdate_r9npojpcpE1nIt6wcZfq3F 0000000180002b00 f   m_r9npojpcpE1nIt6wcZfq3F.obj
 0001:00001b40       getSimState_r9npojpcpE1nIt6wcZfq3F 0000000180002b40 f   m_r9npojpcpE1nIt6wcZfq3F.obj
 0001:00001b80       setSimState_r9npojpcpE1nIt6wcZfq3F 0000000180002b80 f   m_r9npojpcpE1nIt6wcZfq3F.obj
 0001:00001bc0       mdlTerminate_r9npojpcpE1nIt6wcZfq3F 0000000180002bc0 f   m_r9npojpcpE1nIt6wcZfq3F.obj
 0001:00001c00       mdlEnable_r9npojpcpE1nIt6wcZfq3F 0000000180002c00 f   m_r9npojpcpE1nIt6wcZfq3F.obj
 0001:00001c30       mdlDisable_r9npojpcpE1nIt6wcZfq3F 0000000180002c30 f   m_r9npojpcpE1nIt6wcZfq3F.obj
 0001:00001c60       mdlStart_r9npojpcpE1nIt6wcZfq3F 0000000180002c60 f   m_r9npojpcpE1nIt6wcZfq3F.obj
 0001:00001d60       mdlProcessParameters_r9npojpcpE1nIt6wcZfq3F 0000000180002d60 f   m_r9npojpcpE1nIt6wcZfq3F.obj
 0001:00002030       cgxe_mdl_start             0000000180003030 f   m_DH3jGOJ4u96z2aK3hkI3OE.obj
 0001:000020c0       cgxe_mdl_initialize        00000001800030c0 f   m_DH3jGOJ4u96z2aK3hkI3OE.obj
 0001:00002140       cgxe_mdl_outputs           0000000180003140 f   m_DH3jGOJ4u96z2aK3hkI3OE.obj
 0001:000021d0       cgxe_mdl_update            00000001800031d0 f   m_DH3jGOJ4u96z2aK3hkI3OE.obj
 0001:000021e0       cgxe_mdl_enable            00000001800031e0 f   m_DH3jGOJ4u96z2aK3hkI3OE.obj
 0001:000021f0       cgxe_mdl_disable           00000001800031f0 f   m_DH3jGOJ4u96z2aK3hkI3OE.obj
 0001:00002200       cgxe_mdl_terminate         0000000180003200 f   m_DH3jGOJ4u96z2aK3hkI3OE.obj
 0001:00002250       mw__internal__system__init__fcn 0000000180003250 f   m_DH3jGOJ4u96z2aK3hkI3OE.obj
 0001:00002270       mw__internal__system__terminate__fcn 0000000180003270 f   m_DH3jGOJ4u96z2aK3hkI3OE.obj
 0001:000022e0       mw__internal__call__setup  00000001800032e0 f   m_DH3jGOJ4u96z2aK3hkI3OE.obj
 0001:000023e0       SystemCore_setup           00000001800033e0 f   m_DH3jGOJ4u96z2aK3hkI3OE.obj
 0001:000026b0       mw__internal__call__reset  00000001800036b0 f   m_DH3jGOJ4u96z2aK3hkI3OE.obj
 0001:00002a20       mw__internal__call__step   0000000180003a20 f   m_DH3jGOJ4u96z2aK3hkI3OE.obj
 0001:00002e30       emlrt_marshallOut          0000000180003e30 f   m_DH3jGOJ4u96z2aK3hkI3OE.obj
 0001:00003030       cgxe_mdl_get_sim_state     0000000180004030 f   m_DH3jGOJ4u96z2aK3hkI3OE.obj
 0001:00003070       emlrt_marshallIn           0000000180004070 f   m_DH3jGOJ4u96z2aK3hkI3OE.obj
 0001:00003160       b_emlrt_marshallIn         0000000180004160 f   m_DH3jGOJ4u96z2aK3hkI3OE.obj
 0001:00003230       c_emlrt_marshallIn         0000000180004230 f   m_DH3jGOJ4u96z2aK3hkI3OE.obj
 0001:00003410       d_emlrt_marshallIn         0000000180004410 f   m_DH3jGOJ4u96z2aK3hkI3OE.obj
 0001:00003460       e_emlrt_marshallIn         0000000180004460 f   m_DH3jGOJ4u96z2aK3hkI3OE.obj
 0001:000034b0       f_emlrt_marshallIn         00000001800044b0 f   m_DH3jGOJ4u96z2aK3hkI3OE.obj
 0001:00003520       cgxe_mdl_set_sim_state     0000000180004520 f   m_DH3jGOJ4u96z2aK3hkI3OE.obj
 0001:00003590       message                    0000000180004590 f   m_DH3jGOJ4u96z2aK3hkI3OE.obj
 0001:00003630       getString                  0000000180004630 f   m_DH3jGOJ4u96z2aK3hkI3OE.obj
 0001:000036a0       error                      00000001800046a0 f   m_DH3jGOJ4u96z2aK3hkI3OE.obj
 0001:00003730       g_emlrt_marshallIn         0000000180004730 f   m_DH3jGOJ4u96z2aK3hkI3OE.obj
 0001:000037b0       h_emlrt_marshallIn         00000001800047b0 f   m_DH3jGOJ4u96z2aK3hkI3OE.obj
 0001:00003820       init_simulink_io_address   0000000180004820 f   m_DH3jGOJ4u96z2aK3hkI3OE.obj
 0001:00003870       mdlOutputs_DH3jGOJ4u96z2aK3hkI3OE 0000000180004870 f   m_DH3jGOJ4u96z2aK3hkI3OE.obj
 0001:000038b0       mdlInitialize_DH3jGOJ4u96z2aK3hkI3OE 00000001800048b0 f   m_DH3jGOJ4u96z2aK3hkI3OE.obj
 0001:000038e0       mdlUpdate_DH3jGOJ4u96z2aK3hkI3OE 00000001800048e0 f   m_DH3jGOJ4u96z2aK3hkI3OE.obj
 0001:00003920       getSimState_DH3jGOJ4u96z2aK3hkI3OE 0000000180004920 f   m_DH3jGOJ4u96z2aK3hkI3OE.obj
 0001:00003960       setSimState_DH3jGOJ4u96z2aK3hkI3OE 0000000180004960 f   m_DH3jGOJ4u96z2aK3hkI3OE.obj
 0001:000039a0       mdlTerminate_DH3jGOJ4u96z2aK3hkI3OE 00000001800049a0 f   m_DH3jGOJ4u96z2aK3hkI3OE.obj
 0001:000039e0       mdlEnable_DH3jGOJ4u96z2aK3hkI3OE 00000001800049e0 f   m_DH3jGOJ4u96z2aK3hkI3OE.obj
 0001:00003a10       mdlDisable_DH3jGOJ4u96z2aK3hkI3OE 0000000180004a10 f   m_DH3jGOJ4u96z2aK3hkI3OE.obj
 0001:00003a40       mdlStart_DH3jGOJ4u96z2aK3hkI3OE 0000000180004a40 f   m_DH3jGOJ4u96z2aK3hkI3OE.obj
 0001:00003b40       mdlProcessParameters_DH3jGOJ4u96z2aK3hkI3OE 0000000180004b40 f   m_DH3jGOJ4u96z2aK3hkI3OE.obj
 0001:00003e10       cgxe_mdl_start             0000000180004e10 f   m_zBcJJKdPFoobubnOzm2A4C.obj
 0001:00003ea0       cgxe_mdl_initialize        0000000180004ea0 f   m_zBcJJKdPFoobubnOzm2A4C.obj
 0001:00003f20       cgxe_mdl_outputs           0000000180004f20 f   m_zBcJJKdPFoobubnOzm2A4C.obj
 0001:00003fa0       cgxe_mdl_update            0000000180004fa0 f   m_zBcJJKdPFoobubnOzm2A4C.obj
 0001:00003fb0       cgxe_mdl_enable            0000000180004fb0 f   m_zBcJJKdPFoobubnOzm2A4C.obj
 0001:00003fc0       cgxe_mdl_disable           0000000180004fc0 f   m_zBcJJKdPFoobubnOzm2A4C.obj
 0001:00003fd0       cgxe_mdl_terminate         0000000180004fd0 f   m_zBcJJKdPFoobubnOzm2A4C.obj
 0001:00004020       mw__internal__call__setup  0000000180005020 f   m_zBcJJKdPFoobubnOzm2A4C.obj
 0001:00004110       SystemCore_setup           0000000180005110 f   m_zBcJJKdPFoobubnOzm2A4C.obj
 0001:000043c0       mw__internal__call__reset  00000001800053c0 f   m_zBcJJKdPFoobubnOzm2A4C.obj
 0001:00004710       mw__internal__call__step   0000000180005710 f   m_zBcJJKdPFoobubnOzm2A4C.obj
 0001:00004ad0       emlrt_marshallOut          0000000180005ad0 f   m_zBcJJKdPFoobubnOzm2A4C.obj
 0001:00004c20       cgxe_mdl_get_sim_state     0000000180005c20 f   m_zBcJJKdPFoobubnOzm2A4C.obj
 0001:00004c60       emlrt_marshallIn           0000000180005c60 f   m_zBcJJKdPFoobubnOzm2A4C.obj
 0001:00004d30       b_emlrt_marshallIn         0000000180005d30 f   m_zBcJJKdPFoobubnOzm2A4C.obj
 0001:00004da0       c_emlrt_marshallIn         0000000180005da0 f   m_zBcJJKdPFoobubnOzm2A4C.obj
 0001:00004e80       d_emlrt_marshallIn         0000000180005e80 f   m_zBcJJKdPFoobubnOzm2A4C.obj
 0001:00004ed0       e_emlrt_marshallIn         0000000180005ed0 f   m_zBcJJKdPFoobubnOzm2A4C.obj
 0001:00004f40       f_emlrt_marshallIn         0000000180005f40 f   m_zBcJJKdPFoobubnOzm2A4C.obj
 0001:00004f90       cgxe_mdl_set_sim_state     0000000180005f90 f   m_zBcJJKdPFoobubnOzm2A4C.obj
 0001:00005000       message                    0000000180006000 f   m_zBcJJKdPFoobubnOzm2A4C.obj
 0001:000050a0       getString                  00000001800060a0 f   m_zBcJJKdPFoobubnOzm2A4C.obj
 0001:00005110       error                      0000000180006110 f   m_zBcJJKdPFoobubnOzm2A4C.obj
 0001:000051a0       g_emlrt_marshallIn         00000001800061a0 f   m_zBcJJKdPFoobubnOzm2A4C.obj
 0001:00005210       h_emlrt_marshallIn         0000000180006210 f   m_zBcJJKdPFoobubnOzm2A4C.obj
 0001:00005290       init_simulink_io_address   0000000180006290 f   m_zBcJJKdPFoobubnOzm2A4C.obj
 0001:000052e0       mdlOutputs_zBcJJKdPFoobubnOzm2A4C 00000001800062e0 f   m_zBcJJKdPFoobubnOzm2A4C.obj
 0001:00005320       mdlInitialize_zBcJJKdPFoobubnOzm2A4C 0000000180006320 f   m_zBcJJKdPFoobubnOzm2A4C.obj
 0001:00005350       mdlUpdate_zBcJJKdPFoobubnOzm2A4C 0000000180006350 f   m_zBcJJKdPFoobubnOzm2A4C.obj
 0001:00005390       getSimState_zBcJJKdPFoobubnOzm2A4C 0000000180006390 f   m_zBcJJKdPFoobubnOzm2A4C.obj
 0001:000053d0       setSimState_zBcJJKdPFoobubnOzm2A4C 00000001800063d0 f   m_zBcJJKdPFoobubnOzm2A4C.obj
 0001:00005410       mdlTerminate_zBcJJKdPFoobubnOzm2A4C 0000000180006410 f   m_zBcJJKdPFoobubnOzm2A4C.obj
 0001:00005450       mdlEnable_zBcJJKdPFoobubnOzm2A4C 0000000180006450 f   m_zBcJJKdPFoobubnOzm2A4C.obj
 0001:00005480       mdlDisable_zBcJJKdPFoobubnOzm2A4C 0000000180006480 f   m_zBcJJKdPFoobubnOzm2A4C.obj
 0001:000054b0       mdlStart_zBcJJKdPFoobubnOzm2A4C 00000001800064b0 f   m_zBcJJKdPFoobubnOzm2A4C.obj
 0001:000055b0       mdlProcessParameters_zBcJJKdPFoobubnOzm2A4C 00000001800065b0 f   m_zBcJJKdPFoobubnOzm2A4C.obj
 0001:00005880       cgxe_mdl_start             0000000180006880 f   m_E5eYYMYEC9250ATstCUIJE.obj
 0001:00005910       cgxe_mdl_initialize        0000000180006910 f   m_E5eYYMYEC9250ATstCUIJE.obj
 0001:00005990       cgxe_mdl_outputs           0000000180006990 f   m_E5eYYMYEC9250ATstCUIJE.obj
 0001:00005a10       cgxe_mdl_update            0000000180006a10 f   m_E5eYYMYEC9250ATstCUIJE.obj
 0001:00005a20       cgxe_mdl_enable            0000000180006a20 f   m_E5eYYMYEC9250ATstCUIJE.obj
 0001:00005a30       cgxe_mdl_disable           0000000180006a30 f   m_E5eYYMYEC9250ATstCUIJE.obj
 0001:00005a40       cgxe_mdl_terminate         0000000180006a40 f   m_E5eYYMYEC9250ATstCUIJE.obj
 0001:00005a90       mw__internal__call__setup  0000000180006a90 f   m_E5eYYMYEC9250ATstCUIJE.obj
 0001:00005b80       SystemCore_setup           0000000180006b80 f   m_E5eYYMYEC9250ATstCUIJE.obj
 0001:00005e30       mw__internal__call__reset  0000000180006e30 f   m_E5eYYMYEC9250ATstCUIJE.obj
 0001:00006180       mw__internal__call__step   0000000180007180 f   m_E5eYYMYEC9250ATstCUIJE.obj
 0001:00006540       emlrt_marshallOut          0000000180007540 f   m_E5eYYMYEC9250ATstCUIJE.obj
 0001:00006690       cgxe_mdl_get_sim_state     0000000180007690 f   m_E5eYYMYEC9250ATstCUIJE.obj
 0001:000066d0       emlrt_marshallIn           00000001800076d0 f   m_E5eYYMYEC9250ATstCUIJE.obj
 0001:000067a0       b_emlrt_marshallIn         00000001800077a0 f   m_E5eYYMYEC9250ATstCUIJE.obj
 0001:00006810       c_emlrt_marshallIn         0000000180007810 f   m_E5eYYMYEC9250ATstCUIJE.obj
 0001:000068f0       d_emlrt_marshallIn         00000001800078f0 f   m_E5eYYMYEC9250ATstCUIJE.obj
 0001:00006940       e_emlrt_marshallIn         0000000180007940 f   m_E5eYYMYEC9250ATstCUIJE.obj
 0001:000069b0       f_emlrt_marshallIn         00000001800079b0 f   m_E5eYYMYEC9250ATstCUIJE.obj
 0001:00006a00       cgxe_mdl_set_sim_state     0000000180007a00 f   m_E5eYYMYEC9250ATstCUIJE.obj
 0001:00006a70       message                    0000000180007a70 f   m_E5eYYMYEC9250ATstCUIJE.obj
 0001:00006b10       getString                  0000000180007b10 f   m_E5eYYMYEC9250ATstCUIJE.obj
 0001:00006b80       error                      0000000180007b80 f   m_E5eYYMYEC9250ATstCUIJE.obj
 0001:00006c10       g_emlrt_marshallIn         0000000180007c10 f   m_E5eYYMYEC9250ATstCUIJE.obj
 0001:00006c80       h_emlrt_marshallIn         0000000180007c80 f   m_E5eYYMYEC9250ATstCUIJE.obj
 0001:00006d00       init_simulink_io_address   0000000180007d00 f   m_E5eYYMYEC9250ATstCUIJE.obj
 0001:00006d50       mdlOutputs_E5eYYMYEC9250ATstCUIJE 0000000180007d50 f   m_E5eYYMYEC9250ATstCUIJE.obj
 0001:00006d90       mdlInitialize_E5eYYMYEC9250ATstCUIJE 0000000180007d90 f   m_E5eYYMYEC9250ATstCUIJE.obj
 0001:00006dc0       mdlUpdate_E5eYYMYEC9250ATstCUIJE 0000000180007dc0 f   m_E5eYYMYEC9250ATstCUIJE.obj
 0001:00006e00       getSimState_E5eYYMYEC9250ATstCUIJE 0000000180007e00 f   m_E5eYYMYEC9250ATstCUIJE.obj
 0001:00006e40       setSimState_E5eYYMYEC9250ATstCUIJE 0000000180007e40 f   m_E5eYYMYEC9250ATstCUIJE.obj
 0001:00006e80       mdlTerminate_E5eYYMYEC9250ATstCUIJE 0000000180007e80 f   m_E5eYYMYEC9250ATstCUIJE.obj
 0001:00006ec0       mdlEnable_E5eYYMYEC9250ATstCUIJE 0000000180007ec0 f   m_E5eYYMYEC9250ATstCUIJE.obj
 0001:00006ef0       mdlDisable_E5eYYMYEC9250ATstCUIJE 0000000180007ef0 f   m_E5eYYMYEC9250ATstCUIJE.obj
 0001:00006f20       mdlStart_E5eYYMYEC9250ATstCUIJE 0000000180007f20 f   m_E5eYYMYEC9250ATstCUIJE.obj
 0001:00007020       mdlProcessParameters_E5eYYMYEC9250ATstCUIJE 0000000180008020 f   m_E5eYYMYEC9250ATstCUIJE.obj
 0001:000072f0       cgxe_mdl_start             00000001800082f0 f   m_KfaDhNL7xJVG1u0RUxB9sH.obj
 0001:00007380       cgxe_mdl_initialize        0000000180008380 f   m_KfaDhNL7xJVG1u0RUxB9sH.obj
 0001:00007400       cgxe_mdl_outputs           0000000180008400 f   m_KfaDhNL7xJVG1u0RUxB9sH.obj
 0001:00007480       cgxe_mdl_update            0000000180008480 f   m_KfaDhNL7xJVG1u0RUxB9sH.obj
 0001:00007490       cgxe_mdl_enable            0000000180008490 f   m_KfaDhNL7xJVG1u0RUxB9sH.obj
 0001:000074a0       cgxe_mdl_disable           00000001800084a0 f   m_KfaDhNL7xJVG1u0RUxB9sH.obj
 0001:000074b0       cgxe_mdl_terminate         00000001800084b0 f   m_KfaDhNL7xJVG1u0RUxB9sH.obj
 0001:00007500       mw__internal__call__setup  0000000180008500 f   m_KfaDhNL7xJVG1u0RUxB9sH.obj
 0001:000075f0       SystemCore_setup           00000001800085f0 f   m_KfaDhNL7xJVG1u0RUxB9sH.obj
 0001:000078a0       mw__internal__call__reset  00000001800088a0 f   m_KfaDhNL7xJVG1u0RUxB9sH.obj
 0001:00007bf0       mw__internal__call__step   0000000180008bf0 f   m_KfaDhNL7xJVG1u0RUxB9sH.obj
 0001:00007fb0       emlrt_marshallOut          0000000180008fb0 f   m_KfaDhNL7xJVG1u0RUxB9sH.obj
 0001:00008100       cgxe_mdl_get_sim_state     0000000180009100 f   m_KfaDhNL7xJVG1u0RUxB9sH.obj
 0001:00008140       emlrt_marshallIn           0000000180009140 f   m_KfaDhNL7xJVG1u0RUxB9sH.obj
 0001:00008210       b_emlrt_marshallIn         0000000180009210 f   m_KfaDhNL7xJVG1u0RUxB9sH.obj
 0001:00008280       c_emlrt_marshallIn         0000000180009280 f   m_KfaDhNL7xJVG1u0RUxB9sH.obj
 0001:00008360       d_emlrt_marshallIn         0000000180009360 f   m_KfaDhNL7xJVG1u0RUxB9sH.obj
 0001:000083b0       e_emlrt_marshallIn         00000001800093b0 f   m_KfaDhNL7xJVG1u0RUxB9sH.obj
 0001:00008420       f_emlrt_marshallIn         0000000180009420 f   m_KfaDhNL7xJVG1u0RUxB9sH.obj
 0001:00008470       cgxe_mdl_set_sim_state     0000000180009470 f   m_KfaDhNL7xJVG1u0RUxB9sH.obj
 0001:000084e0       message                    00000001800094e0 f   m_KfaDhNL7xJVG1u0RUxB9sH.obj
 0001:00008580       getString                  0000000180009580 f   m_KfaDhNL7xJVG1u0RUxB9sH.obj
 0001:000085f0       error                      00000001800095f0 f   m_KfaDhNL7xJVG1u0RUxB9sH.obj
 0001:00008680       g_emlrt_marshallIn         0000000180009680 f   m_KfaDhNL7xJVG1u0RUxB9sH.obj
 0001:000086f0       h_emlrt_marshallIn         00000001800096f0 f   m_KfaDhNL7xJVG1u0RUxB9sH.obj
 0001:00008770       init_simulink_io_address   0000000180009770 f   m_KfaDhNL7xJVG1u0RUxB9sH.obj
 0001:000087c0       mdlOutputs_KfaDhNL7xJVG1u0RUxB9sH 00000001800097c0 f   m_KfaDhNL7xJVG1u0RUxB9sH.obj
 0001:00008800       mdlInitialize_KfaDhNL7xJVG1u0RUxB9sH 0000000180009800 f   m_KfaDhNL7xJVG1u0RUxB9sH.obj
 0001:00008830       mdlUpdate_KfaDhNL7xJVG1u0RUxB9sH 0000000180009830 f   m_KfaDhNL7xJVG1u0RUxB9sH.obj
 0001:00008870       getSimState_KfaDhNL7xJVG1u0RUxB9sH 0000000180009870 f   m_KfaDhNL7xJVG1u0RUxB9sH.obj
 0001:000088b0       setSimState_KfaDhNL7xJVG1u0RUxB9sH 00000001800098b0 f   m_KfaDhNL7xJVG1u0RUxB9sH.obj
 0001:000088f0       mdlTerminate_KfaDhNL7xJVG1u0RUxB9sH 00000001800098f0 f   m_KfaDhNL7xJVG1u0RUxB9sH.obj
 0001:00008930       mdlEnable_KfaDhNL7xJVG1u0RUxB9sH 0000000180009930 f   m_KfaDhNL7xJVG1u0RUxB9sH.obj
 0001:00008960       mdlDisable_KfaDhNL7xJVG1u0RUxB9sH 0000000180009960 f   m_KfaDhNL7xJVG1u0RUxB9sH.obj
 0001:00008990       mdlStart_KfaDhNL7xJVG1u0RUxB9sH 0000000180009990 f   m_KfaDhNL7xJVG1u0RUxB9sH.obj
 0001:00008a90       mdlProcessParameters_KfaDhNL7xJVG1u0RUxB9sH 0000000180009a90 f   m_KfaDhNL7xJVG1u0RUxB9sH.obj
 0001:00008d60       cgxe_mdl_start             0000000180009d60 f   m_nyucgZWjM3Ai1CT2jftVoF.obj
 0001:00008df0       cgxe_mdl_initialize        0000000180009df0 f   m_nyucgZWjM3Ai1CT2jftVoF.obj
 0001:00008e70       cgxe_mdl_outputs           0000000180009e70 f   m_nyucgZWjM3Ai1CT2jftVoF.obj
 0001:00008ef0       cgxe_mdl_update            0000000180009ef0 f   m_nyucgZWjM3Ai1CT2jftVoF.obj
 0001:00008f00       cgxe_mdl_enable            0000000180009f00 f   m_nyucgZWjM3Ai1CT2jftVoF.obj
 0001:00008f10       cgxe_mdl_disable           0000000180009f10 f   m_nyucgZWjM3Ai1CT2jftVoF.obj
 0001:00008f20       cgxe_mdl_terminate         0000000180009f20 f   m_nyucgZWjM3Ai1CT2jftVoF.obj
 0001:00008f70       mw__internal__call__setup  0000000180009f70 f   m_nyucgZWjM3Ai1CT2jftVoF.obj
 0001:00009060       SystemCore_setup           000000018000a060 f   m_nyucgZWjM3Ai1CT2jftVoF.obj
 0001:00009310       mw__internal__call__reset  000000018000a310 f   m_nyucgZWjM3Ai1CT2jftVoF.obj
 0001:00009660       mw__internal__call__step   000000018000a660 f   m_nyucgZWjM3Ai1CT2jftVoF.obj
 0001:00009a20       emlrt_marshallOut          000000018000aa20 f   m_nyucgZWjM3Ai1CT2jftVoF.obj
 0001:00009b70       cgxe_mdl_get_sim_state     000000018000ab70 f   m_nyucgZWjM3Ai1CT2jftVoF.obj
 0001:00009bb0       emlrt_marshallIn           000000018000abb0 f   m_nyucgZWjM3Ai1CT2jftVoF.obj
 0001:00009c80       b_emlrt_marshallIn         000000018000ac80 f   m_nyucgZWjM3Ai1CT2jftVoF.obj
 0001:00009cf0       c_emlrt_marshallIn         000000018000acf0 f   m_nyucgZWjM3Ai1CT2jftVoF.obj
 0001:00009dd0       d_emlrt_marshallIn         000000018000add0 f   m_nyucgZWjM3Ai1CT2jftVoF.obj
 0001:00009e20       e_emlrt_marshallIn         000000018000ae20 f   m_nyucgZWjM3Ai1CT2jftVoF.obj
 0001:00009e90       f_emlrt_marshallIn         000000018000ae90 f   m_nyucgZWjM3Ai1CT2jftVoF.obj
 0001:00009ee0       cgxe_mdl_set_sim_state     000000018000aee0 f   m_nyucgZWjM3Ai1CT2jftVoF.obj
 0001:00009f50       message                    000000018000af50 f   m_nyucgZWjM3Ai1CT2jftVoF.obj
 0001:00009ff0       getString                  000000018000aff0 f   m_nyucgZWjM3Ai1CT2jftVoF.obj
 0001:0000a060       error                      000000018000b060 f   m_nyucgZWjM3Ai1CT2jftVoF.obj
 0001:0000a0f0       g_emlrt_marshallIn         000000018000b0f0 f   m_nyucgZWjM3Ai1CT2jftVoF.obj
 0001:0000a160       h_emlrt_marshallIn         000000018000b160 f   m_nyucgZWjM3Ai1CT2jftVoF.obj
 0001:0000a1e0       init_simulink_io_address   000000018000b1e0 f   m_nyucgZWjM3Ai1CT2jftVoF.obj
 0001:0000a230       mdlOutputs_nyucgZWjM3Ai1CT2jftVoF 000000018000b230 f   m_nyucgZWjM3Ai1CT2jftVoF.obj
 0001:0000a270       mdlInitialize_nyucgZWjM3Ai1CT2jftVoF 000000018000b270 f   m_nyucgZWjM3Ai1CT2jftVoF.obj
 0001:0000a2a0       mdlUpdate_nyucgZWjM3Ai1CT2jftVoF 000000018000b2a0 f   m_nyucgZWjM3Ai1CT2jftVoF.obj
 0001:0000a2e0       getSimState_nyucgZWjM3Ai1CT2jftVoF 000000018000b2e0 f   m_nyucgZWjM3Ai1CT2jftVoF.obj
 0001:0000a320       setSimState_nyucgZWjM3Ai1CT2jftVoF 000000018000b320 f   m_nyucgZWjM3Ai1CT2jftVoF.obj
 0001:0000a360       mdlTerminate_nyucgZWjM3Ai1CT2jftVoF 000000018000b360 f   m_nyucgZWjM3Ai1CT2jftVoF.obj
 0001:0000a3a0       mdlEnable_nyucgZWjM3Ai1CT2jftVoF 000000018000b3a0 f   m_nyucgZWjM3Ai1CT2jftVoF.obj
 0001:0000a3d0       mdlDisable_nyucgZWjM3Ai1CT2jftVoF 000000018000b3d0 f   m_nyucgZWjM3Ai1CT2jftVoF.obj
 0001:0000a400       mdlStart_nyucgZWjM3Ai1CT2jftVoF 000000018000b400 f   m_nyucgZWjM3Ai1CT2jftVoF.obj
 0001:0000a500       mdlProcessParameters_nyucgZWjM3Ai1CT2jftVoF 000000018000b500 f   m_nyucgZWjM3Ai1CT2jftVoF.obj
 0001:0000a7d0       cgxe_mdl_start             000000018000b7d0 f   m_KDwHGQ2xXp4wmWKPmnDGqC.obj
 0001:0000a860       cgxe_mdl_initialize        000000018000b860 f   m_KDwHGQ2xXp4wmWKPmnDGqC.obj
 0001:0000a8e0       cgxe_mdl_outputs           000000018000b8e0 f   m_KDwHGQ2xXp4wmWKPmnDGqC.obj
 0001:0000a960       cgxe_mdl_update            000000018000b960 f   m_KDwHGQ2xXp4wmWKPmnDGqC.obj
 0001:0000a970       cgxe_mdl_enable            000000018000b970 f   m_KDwHGQ2xXp4wmWKPmnDGqC.obj
 0001:0000a980       cgxe_mdl_disable           000000018000b980 f   m_KDwHGQ2xXp4wmWKPmnDGqC.obj
 0001:0000a990       cgxe_mdl_terminate         000000018000b990 f   m_KDwHGQ2xXp4wmWKPmnDGqC.obj
 0001:0000a9e0       mw__internal__call__setup  000000018000b9e0 f   m_KDwHGQ2xXp4wmWKPmnDGqC.obj
 0001:0000aad0       SystemCore_setup           000000018000bad0 f   m_KDwHGQ2xXp4wmWKPmnDGqC.obj
 0001:0000ad80       mw__internal__call__reset  000000018000bd80 f   m_KDwHGQ2xXp4wmWKPmnDGqC.obj
 0001:0000b0d0       mw__internal__call__step   000000018000c0d0 f   m_KDwHGQ2xXp4wmWKPmnDGqC.obj
 0001:0000b490       emlrt_marshallOut          000000018000c490 f   m_KDwHGQ2xXp4wmWKPmnDGqC.obj
 0001:0000b5e0       cgxe_mdl_get_sim_state     000000018000c5e0 f   m_KDwHGQ2xXp4wmWKPmnDGqC.obj
 0001:0000b620       emlrt_marshallIn           000000018000c620 f   m_KDwHGQ2xXp4wmWKPmnDGqC.obj
 0001:0000b6f0       b_emlrt_marshallIn         000000018000c6f0 f   m_KDwHGQ2xXp4wmWKPmnDGqC.obj
 0001:0000b760       c_emlrt_marshallIn         000000018000c760 f   m_KDwHGQ2xXp4wmWKPmnDGqC.obj
 0001:0000b840       d_emlrt_marshallIn         000000018000c840 f   m_KDwHGQ2xXp4wmWKPmnDGqC.obj
 0001:0000b890       e_emlrt_marshallIn         000000018000c890 f   m_KDwHGQ2xXp4wmWKPmnDGqC.obj
 0001:0000b900       f_emlrt_marshallIn         000000018000c900 f   m_KDwHGQ2xXp4wmWKPmnDGqC.obj
 0001:0000b950       cgxe_mdl_set_sim_state     000000018000c950 f   m_KDwHGQ2xXp4wmWKPmnDGqC.obj
 0001:0000b9c0       message                    000000018000c9c0 f   m_KDwHGQ2xXp4wmWKPmnDGqC.obj
 0001:0000ba60       getString                  000000018000ca60 f   m_KDwHGQ2xXp4wmWKPmnDGqC.obj
 0001:0000bad0       error                      000000018000cad0 f   m_KDwHGQ2xXp4wmWKPmnDGqC.obj
 0001:0000bb60       g_emlrt_marshallIn         000000018000cb60 f   m_KDwHGQ2xXp4wmWKPmnDGqC.obj
 0001:0000bbd0       h_emlrt_marshallIn         000000018000cbd0 f   m_KDwHGQ2xXp4wmWKPmnDGqC.obj
 0001:0000bc50       init_simulink_io_address   000000018000cc50 f   m_KDwHGQ2xXp4wmWKPmnDGqC.obj
 0001:0000bca0       mdlOutputs_KDwHGQ2xXp4wmWKPmnDGqC 000000018000cca0 f   m_KDwHGQ2xXp4wmWKPmnDGqC.obj
 0001:0000bce0       mdlInitialize_KDwHGQ2xXp4wmWKPmnDGqC 000000018000cce0 f   m_KDwHGQ2xXp4wmWKPmnDGqC.obj
 0001:0000bd10       mdlUpdate_KDwHGQ2xXp4wmWKPmnDGqC 000000018000cd10 f   m_KDwHGQ2xXp4wmWKPmnDGqC.obj
 0001:0000bd50       getSimState_KDwHGQ2xXp4wmWKPmnDGqC 000000018000cd50 f   m_KDwHGQ2xXp4wmWKPmnDGqC.obj
 0001:0000bd90       setSimState_KDwHGQ2xXp4wmWKPmnDGqC 000000018000cd90 f   m_KDwHGQ2xXp4wmWKPmnDGqC.obj
 0001:0000bdd0       mdlTerminate_KDwHGQ2xXp4wmWKPmnDGqC 000000018000cdd0 f   m_KDwHGQ2xXp4wmWKPmnDGqC.obj
 0001:0000be10       mdlEnable_KDwHGQ2xXp4wmWKPmnDGqC 000000018000ce10 f   m_KDwHGQ2xXp4wmWKPmnDGqC.obj
 0001:0000be40       mdlDisable_KDwHGQ2xXp4wmWKPmnDGqC 000000018000ce40 f   m_KDwHGQ2xXp4wmWKPmnDGqC.obj
 0001:0000be70       mdlStart_KDwHGQ2xXp4wmWKPmnDGqC 000000018000ce70 f   m_KDwHGQ2xXp4wmWKPmnDGqC.obj
 0001:0000bf70       mdlProcessParameters_KDwHGQ2xXp4wmWKPmnDGqC 000000018000cf70 f   m_KDwHGQ2xXp4wmWKPmnDGqC.obj
 0001:0000c240       cgxe_mdl_start             000000018000d240 f   m_N6wSUtJycDbE8bKJByzvlC.obj
 0001:0000c2d0       cgxe_mdl_initialize        000000018000d2d0 f   m_N6wSUtJycDbE8bKJByzvlC.obj
 0001:0000c350       cgxe_mdl_outputs           000000018000d350 f   m_N6wSUtJycDbE8bKJByzvlC.obj
 0001:0000c3d0       cgxe_mdl_update            000000018000d3d0 f   m_N6wSUtJycDbE8bKJByzvlC.obj
 0001:0000c3e0       cgxe_mdl_enable            000000018000d3e0 f   m_N6wSUtJycDbE8bKJByzvlC.obj
 0001:0000c3f0       cgxe_mdl_disable           000000018000d3f0 f   m_N6wSUtJycDbE8bKJByzvlC.obj
 0001:0000c400       cgxe_mdl_terminate         000000018000d400 f   m_N6wSUtJycDbE8bKJByzvlC.obj
 0001:0000c450       mw__internal__call__setup  000000018000d450 f   m_N6wSUtJycDbE8bKJByzvlC.obj
 0001:0000c540       SystemCore_setup           000000018000d540 f   m_N6wSUtJycDbE8bKJByzvlC.obj
 0001:0000c7f0       mw__internal__call__reset  000000018000d7f0 f   m_N6wSUtJycDbE8bKJByzvlC.obj
 0001:0000cb40       mw__internal__call__step   000000018000db40 f   m_N6wSUtJycDbE8bKJByzvlC.obj
 0001:0000cf00       emlrt_marshallOut          000000018000df00 f   m_N6wSUtJycDbE8bKJByzvlC.obj
 0001:0000d050       cgxe_mdl_get_sim_state     000000018000e050 f   m_N6wSUtJycDbE8bKJByzvlC.obj
 0001:0000d090       emlrt_marshallIn           000000018000e090 f   m_N6wSUtJycDbE8bKJByzvlC.obj
 0001:0000d160       b_emlrt_marshallIn         000000018000e160 f   m_N6wSUtJycDbE8bKJByzvlC.obj
 0001:0000d1d0       c_emlrt_marshallIn         000000018000e1d0 f   m_N6wSUtJycDbE8bKJByzvlC.obj
 0001:0000d2b0       d_emlrt_marshallIn         000000018000e2b0 f   m_N6wSUtJycDbE8bKJByzvlC.obj
 0001:0000d300       e_emlrt_marshallIn         000000018000e300 f   m_N6wSUtJycDbE8bKJByzvlC.obj
 0001:0000d370       f_emlrt_marshallIn         000000018000e370 f   m_N6wSUtJycDbE8bKJByzvlC.obj
 0001:0000d3c0       cgxe_mdl_set_sim_state     000000018000e3c0 f   m_N6wSUtJycDbE8bKJByzvlC.obj
 0001:0000d430       message                    000000018000e430 f   m_N6wSUtJycDbE8bKJByzvlC.obj
 0001:0000d4d0       getString                  000000018000e4d0 f   m_N6wSUtJycDbE8bKJByzvlC.obj
 0001:0000d540       error                      000000018000e540 f   m_N6wSUtJycDbE8bKJByzvlC.obj
 0001:0000d5d0       g_emlrt_marshallIn         000000018000e5d0 f   m_N6wSUtJycDbE8bKJByzvlC.obj
 0001:0000d640       h_emlrt_marshallIn         000000018000e640 f   m_N6wSUtJycDbE8bKJByzvlC.obj
 0001:0000d6c0       init_simulink_io_address   000000018000e6c0 f   m_N6wSUtJycDbE8bKJByzvlC.obj
 0001:0000d710       mdlOutputs_N6wSUtJycDbE8bKJByzvlC 000000018000e710 f   m_N6wSUtJycDbE8bKJByzvlC.obj
 0001:0000d750       mdlInitialize_N6wSUtJycDbE8bKJByzvlC 000000018000e750 f   m_N6wSUtJycDbE8bKJByzvlC.obj
 0001:0000d780       mdlUpdate_N6wSUtJycDbE8bKJByzvlC 000000018000e780 f   m_N6wSUtJycDbE8bKJByzvlC.obj
 0001:0000d7c0       getSimState_N6wSUtJycDbE8bKJByzvlC 000000018000e7c0 f   m_N6wSUtJycDbE8bKJByzvlC.obj
 0001:0000d800       setSimState_N6wSUtJycDbE8bKJByzvlC 000000018000e800 f   m_N6wSUtJycDbE8bKJByzvlC.obj
 0001:0000d840       mdlTerminate_N6wSUtJycDbE8bKJByzvlC 000000018000e840 f   m_N6wSUtJycDbE8bKJByzvlC.obj
 0001:0000d880       mdlEnable_N6wSUtJycDbE8bKJByzvlC 000000018000e880 f   m_N6wSUtJycDbE8bKJByzvlC.obj
 0001:0000d8b0       mdlDisable_N6wSUtJycDbE8bKJByzvlC 000000018000e8b0 f   m_N6wSUtJycDbE8bKJByzvlC.obj
 0001:0000d8e0       mdlStart_N6wSUtJycDbE8bKJByzvlC 000000018000e8e0 f   m_N6wSUtJycDbE8bKJByzvlC.obj
 0001:0000d9e0       mdlProcessParameters_N6wSUtJycDbE8bKJByzvlC 000000018000e9e0 f   m_N6wSUtJycDbE8bKJByzvlC.obj
 0001:0000dcb0       cgxe_mdl_start             000000018000ecb0 f   m_rv2q6Si9yo15c6LurhHJ.obj
 0001:0000dd40       cgxe_mdl_initialize        000000018000ed40 f   m_rv2q6Si9yo15c6LurhHJ.obj
 0001:0000ddc0       cgxe_mdl_outputs           000000018000edc0 f   m_rv2q6Si9yo15c6LurhHJ.obj
 0001:0000de40       cgxe_mdl_update            000000018000ee40 f   m_rv2q6Si9yo15c6LurhHJ.obj
 0001:0000de50       cgxe_mdl_enable            000000018000ee50 f   m_rv2q6Si9yo15c6LurhHJ.obj
 0001:0000de60       cgxe_mdl_disable           000000018000ee60 f   m_rv2q6Si9yo15c6LurhHJ.obj
 0001:0000de70       cgxe_mdl_terminate         000000018000ee70 f   m_rv2q6Si9yo15c6LurhHJ.obj
 0001:0000dec0       mw__internal__call__setup  000000018000eec0 f   m_rv2q6Si9yo15c6LurhHJ.obj
 0001:0000dfb0       SystemCore_setup           000000018000efb0 f   m_rv2q6Si9yo15c6LurhHJ.obj
 0001:0000e260       mw__internal__call__reset  000000018000f260 f   m_rv2q6Si9yo15c6LurhHJ.obj
 0001:0000e5b0       mw__internal__call__step   000000018000f5b0 f   m_rv2q6Si9yo15c6LurhHJ.obj
 0001:0000e970       emlrt_marshallOut          000000018000f970 f   m_rv2q6Si9yo15c6LurhHJ.obj
 0001:0000eac0       cgxe_mdl_get_sim_state     000000018000fac0 f   m_rv2q6Si9yo15c6LurhHJ.obj
 0001:0000eb00       emlrt_marshallIn           000000018000fb00 f   m_rv2q6Si9yo15c6LurhHJ.obj
 0001:0000ebd0       b_emlrt_marshallIn         000000018000fbd0 f   m_rv2q6Si9yo15c6LurhHJ.obj
 0001:0000ec40       c_emlrt_marshallIn         000000018000fc40 f   m_rv2q6Si9yo15c6LurhHJ.obj
 0001:0000ed20       d_emlrt_marshallIn         000000018000fd20 f   m_rv2q6Si9yo15c6LurhHJ.obj
 0001:0000ed70       e_emlrt_marshallIn         000000018000fd70 f   m_rv2q6Si9yo15c6LurhHJ.obj
 0001:0000ede0       f_emlrt_marshallIn         000000018000fde0 f   m_rv2q6Si9yo15c6LurhHJ.obj
 0001:0000ee30       cgxe_mdl_set_sim_state     000000018000fe30 f   m_rv2q6Si9yo15c6LurhHJ.obj
 0001:0000eea0       message                    000000018000fea0 f   m_rv2q6Si9yo15c6LurhHJ.obj
 0001:0000ef40       getString                  000000018000ff40 f   m_rv2q6Si9yo15c6LurhHJ.obj
 0001:0000efb0       error                      000000018000ffb0 f   m_rv2q6Si9yo15c6LurhHJ.obj
 0001:0000f040       g_emlrt_marshallIn         0000000180010040 f   m_rv2q6Si9yo15c6LurhHJ.obj
 0001:0000f0b0       h_emlrt_marshallIn         00000001800100b0 f   m_rv2q6Si9yo15c6LurhHJ.obj
 0001:0000f130       init_simulink_io_address   0000000180010130 f   m_rv2q6Si9yo15c6LurhHJ.obj
 0001:0000f180       mdlOutputs_rv2q6Si9yo15c6LurhHJ 0000000180010180 f   m_rv2q6Si9yo15c6LurhHJ.obj
 0001:0000f1c0       mdlInitialize_rv2q6Si9yo15c6LurhHJ 00000001800101c0 f   m_rv2q6Si9yo15c6LurhHJ.obj
 0001:0000f1f0       mdlUpdate_rv2q6Si9yo15c6LurhHJ 00000001800101f0 f   m_rv2q6Si9yo15c6LurhHJ.obj
 0001:0000f230       getSimState_rv2q6Si9yo15c6LurhHJ 0000000180010230 f   m_rv2q6Si9yo15c6LurhHJ.obj
 0001:0000f270       setSimState_rv2q6Si9yo15c6LurhHJ 0000000180010270 f   m_rv2q6Si9yo15c6LurhHJ.obj
 0001:0000f2b0       mdlTerminate_rv2q6Si9yo15c6LurhHJ 00000001800102b0 f   m_rv2q6Si9yo15c6LurhHJ.obj
 0001:0000f2f0       mdlEnable_rv2q6Si9yo15c6LurhHJ 00000001800102f0 f   m_rv2q6Si9yo15c6LurhHJ.obj
 0001:0000f320       mdlDisable_rv2q6Si9yo15c6LurhHJ 0000000180010320 f   m_rv2q6Si9yo15c6LurhHJ.obj
 0001:0000f350       mdlStart_rv2q6Si9yo15c6LurhHJ 0000000180010350 f   m_rv2q6Si9yo15c6LurhHJ.obj
 0001:0000f450       mdlProcessParameters_rv2q6Si9yo15c6LurhHJ 0000000180010450 f   m_rv2q6Si9yo15c6LurhHJ.obj
 0001:0000f720       cgxe_mdl_start             0000000180010720 f   m_0IWK4xPALvAwGYJfiJSKHC.obj
 0001:0000f7b0       cgxe_mdl_initialize        00000001800107b0 f   m_0IWK4xPALvAwGYJfiJSKHC.obj
 0001:0000f830       cgxe_mdl_outputs           0000000180010830 f   m_0IWK4xPALvAwGYJfiJSKHC.obj
 0001:0000f8b0       cgxe_mdl_update            00000001800108b0 f   m_0IWK4xPALvAwGYJfiJSKHC.obj
 0001:0000f8c0       cgxe_mdl_enable            00000001800108c0 f   m_0IWK4xPALvAwGYJfiJSKHC.obj
 0001:0000f8d0       cgxe_mdl_disable           00000001800108d0 f   m_0IWK4xPALvAwGYJfiJSKHC.obj
 0001:0000f8e0       cgxe_mdl_terminate         00000001800108e0 f   m_0IWK4xPALvAwGYJfiJSKHC.obj
 0001:0000f930       mw__internal__call__setup  0000000180010930 f   m_0IWK4xPALvAwGYJfiJSKHC.obj
 0001:0000fa20       SystemCore_setup           0000000180010a20 f   m_0IWK4xPALvAwGYJfiJSKHC.obj
 0001:0000fcd0       mw__internal__call__reset  0000000180010cd0 f   m_0IWK4xPALvAwGYJfiJSKHC.obj
 0001:00010020       mw__internal__call__step   0000000180011020 f   m_0IWK4xPALvAwGYJfiJSKHC.obj
 0001:000103e0       emlrt_marshallOut          00000001800113e0 f   m_0IWK4xPALvAwGYJfiJSKHC.obj
 0001:00010530       cgxe_mdl_get_sim_state     0000000180011530 f   m_0IWK4xPALvAwGYJfiJSKHC.obj
 0001:00010570       emlrt_marshallIn           0000000180011570 f   m_0IWK4xPALvAwGYJfiJSKHC.obj
 0001:00010640       b_emlrt_marshallIn         0000000180011640 f   m_0IWK4xPALvAwGYJfiJSKHC.obj
 0001:000106b0       c_emlrt_marshallIn         00000001800116b0 f   m_0IWK4xPALvAwGYJfiJSKHC.obj
 0001:00010790       d_emlrt_marshallIn         0000000180011790 f   m_0IWK4xPALvAwGYJfiJSKHC.obj
 0001:000107e0       e_emlrt_marshallIn         00000001800117e0 f   m_0IWK4xPALvAwGYJfiJSKHC.obj
 0001:00010850       f_emlrt_marshallIn         0000000180011850 f   m_0IWK4xPALvAwGYJfiJSKHC.obj
 0001:000108a0       cgxe_mdl_set_sim_state     00000001800118a0 f   m_0IWK4xPALvAwGYJfiJSKHC.obj
 0001:00010910       message                    0000000180011910 f   m_0IWK4xPALvAwGYJfiJSKHC.obj
 0001:000109b0       getString                  00000001800119b0 f   m_0IWK4xPALvAwGYJfiJSKHC.obj
 0001:00010a20       error                      0000000180011a20 f   m_0IWK4xPALvAwGYJfiJSKHC.obj
 0001:00010ab0       g_emlrt_marshallIn         0000000180011ab0 f   m_0IWK4xPALvAwGYJfiJSKHC.obj
 0001:00010b20       h_emlrt_marshallIn         0000000180011b20 f   m_0IWK4xPALvAwGYJfiJSKHC.obj
 0001:00010ba0       init_simulink_io_address   0000000180011ba0 f   m_0IWK4xPALvAwGYJfiJSKHC.obj
 0001:00010bf0       mdlOutputs_0IWK4xPALvAwGYJfiJSKHC 0000000180011bf0 f   m_0IWK4xPALvAwGYJfiJSKHC.obj
 0001:00010c30       mdlInitialize_0IWK4xPALvAwGYJfiJSKHC 0000000180011c30 f   m_0IWK4xPALvAwGYJfiJSKHC.obj
 0001:00010c60       mdlUpdate_0IWK4xPALvAwGYJfiJSKHC 0000000180011c60 f   m_0IWK4xPALvAwGYJfiJSKHC.obj
 0001:00010ca0       getSimState_0IWK4xPALvAwGYJfiJSKHC 0000000180011ca0 f   m_0IWK4xPALvAwGYJfiJSKHC.obj
 0001:00010ce0       setSimState_0IWK4xPALvAwGYJfiJSKHC 0000000180011ce0 f   m_0IWK4xPALvAwGYJfiJSKHC.obj
 0001:00010d20       mdlTerminate_0IWK4xPALvAwGYJfiJSKHC 0000000180011d20 f   m_0IWK4xPALvAwGYJfiJSKHC.obj
 0001:00010d60       mdlEnable_0IWK4xPALvAwGYJfiJSKHC 0000000180011d60 f   m_0IWK4xPALvAwGYJfiJSKHC.obj
 0001:00010d90       mdlDisable_0IWK4xPALvAwGYJfiJSKHC 0000000180011d90 f   m_0IWK4xPALvAwGYJfiJSKHC.obj
 0001:00010dc0       mdlStart_0IWK4xPALvAwGYJfiJSKHC 0000000180011dc0 f   m_0IWK4xPALvAwGYJfiJSKHC.obj
 0001:00010ec0       mdlProcessParameters_0IWK4xPALvAwGYJfiJSKHC 0000000180011ec0 f   m_0IWK4xPALvAwGYJfiJSKHC.obj
 0001:00012e8c       $LN147                     0000000180013e8c     Child_App_cgxe_registry.obj
 0001:00013cf4       $LN22                      0000000180014cf4     Child_App_cgxe_registry.obj
 0001:000143f4       $LN26                      00000001800153f4     Child_App_cgxe_registry.obj
 0001:00014ad4       $LN24                      0000000180015ad4     Child_App_cgxe_registry.obj
 0001:0001580c       $LN30                      000000018001680c     Child_App_cgxe_registry.obj
 0001:000181f0       mdlStart                   00000001800191f0 f   Child_App_cgxe_registry.obj
 0001:00018230       mdlInitializeConditions    0000000180019230 f   Child_App_cgxe_registry.obj
 0001:00018250       mdlUpdate                  0000000180019250 f   Child_App_cgxe_registry.obj
 0001:00018280       mdlOutputs                 0000000180019280 f   Child_App_cgxe_registry.obj
 0001:000182b0       mdlTerminate               00000001800192b0 f   Child_App_cgxe_registry.obj
 0001:000182d0       mdlInitializeSizes         00000001800192d0 f   Child_App_cgxe_registry.obj
 0001:000182e0       mdlInitializeSampleTimes   00000001800192e0 f   Child_App_cgxe_registry.obj
 0001:000182f0       cgxe_get_supported_modules 00000001800192f0 f   Child_App_cgxe_registry.obj
 0001:000188f0       cgxe_process_get_checksums 00000001800198f0 f   Child_App_cgxe_registry.obj
 0001:00018c80       cgxe_mex_unlock_call       0000000180019c80 f   Child_App_cgxe_registry.obj
 0001:00018cc0       cgxe_unpack_simstruct      0000000180019cc0 f   Child_App_cgxe_registry.obj
 0001:00018d60       cgxe_get_sim_state         0000000180019d60 f   Child_App_cgxe_registry.obj
 0001:00018dd0       cgxe_set_sim_state         0000000180019dd0 f   Child_App_cgxe_registry.obj
 0001:00018e50       cgxe_get_BuildInfoUpdate   0000000180019e50 f   Child_App_cgxe_registry.obj
 0001:00019120       cgxe_get_fallback_info     000000018001a120 f   Child_App_cgxe_registry.obj
 0001:000193f0       ProcessMexSfunctionCmdLineCall 000000018001a3f0 f   Child_App_cgxe_registry.obj
 0001:00019620       mdlZeroCrossings           000000018001a620 f   Child_App_cgxe_registry.obj
 0001:00019670       mdlGetTimeOfNextVarHit     000000018001a670 f   Child_App_cgxe_registry.obj
 0001:000196c0       _RegNumInputPortsCB        000000018001a6c0 f   Child_App_cgxe_registry.obj
 0001:00019740       _RegNumOutputPortsCB       000000018001a740 f   Child_App_cgxe_registry.obj
 0001:000197c0       _CreateSimStruct           000000018001a7c0 f   Child_App_cgxe_registry.obj
 0001:000199f0       _ProcessMexSfunctionCmdLineCall 000000018001a9f0 f   Child_App_cgxe_registry.obj
 0001:0001a380       ReportIndexOutOfBoundsError 000000018001b380 f   Child_App_cgxe_registry.obj
 0001:0001a830       $$000000                   000000018001b830     MSVCRT:amdsecgs.obj
 0001:0001ab28       capture_current_context    000000018001bb28 f   MSVCRT:gs_report.obj
 0001:0001ab98       capture_previous_context   000000018001bb98 f   MSVCRT:gs_report.obj
 0001:0001ac0c       ?dllmain_crt_dispatch@@YAHQEAUHINSTANCE__@@KQEAX@Z 000000018001bc0c f   MSVCRT:dll_dllmain.obj
 0001:0001ac5c       ?dllmain_crt_process_attach@@YAHQEAUHINSTANCE__@@QEAX@Z 000000018001bc5c f   MSVCRT:dll_dllmain.obj
 0001:0001ad74       ?dllmain_crt_process_detach@@YAH_N@Z 000000018001bd74 f   MSVCRT:dll_dllmain.obj
 0001:0001adf8       ?dllmain_dispatch@@YAHQEAUHINSTANCE__@@KQEAX@Z 000000018001bdf8 f   MSVCRT:dll_dllmain.obj
 0001:0001af2c       ?dllmain_raw@@YAHQEAUHINSTANCE__@@KQEAX@Z 000000018001bf2c f   MSVCRT:dll_dllmain.obj
 0001:0001af90       __get_entropy              000000018001bf90 f   MSVCRT:gs_support.obj
 0001:0001b120       ?find_pe_section@@YAPEAU_IMAGE_SECTION_HEADER@@QEAE_K@Z 000000018001c120 f   MSVCRT:utility.obj
 0001:0001b174       ?is_potentially_valid_image_base@@YA_NQEAX@Z 000000018001c174 f   MSVCRT:utility.obj
 0001:0001b8bc       __castguard_check_failure_os_handled_wrapper 000000018001c8bc f   MSVCRT:guard_support.obj
 0001:0001b914       __castguard_check_failure_user_handled_wrapper 000000018001c914 f   MSVCRT:guard_support.obj
 0001:0001b930       __castguard_compat_check   000000018001c930 f   MSVCRT:guard_support.obj
 0001:0001ba74       __castguard_slow_path_compat_check 000000018001ca74 f   MSVCRT:guard_support.obj
 0001:0001bd80       $$000000                   000000018001cd80     MSVCRT:guard_dispatch.obj
 0001:0001bda0       $$000000                   000000018001cda0     MSVCRT:guard_xfg_dispatch.obj
 0001:0001bdb6       ?fin$0@?0??dllmain_crt_process_attach@@YAHQEAUHINSTANCE__@@QEAX@Z@4HA 000000018001cdb6 f   MSVCRT:dll_dllmain.obj
 0001:0001bdcd       ?fin$0@?0??dllmain_crt_process_detach@@YAH_N@Z@4HA 000000018001cdcd f   MSVCRT:dll_dllmain.obj
 0001:0001bde6       ?fin$1@?0??dllmain_crt_process_detach@@YAH_N@Z@4HA 000000018001cde6 f   MSVCRT:dll_dllmain.obj
 0001:0001bdfa       ?filt$0@?0??dllmain_dispatch@@YAHQEAUHINSTANCE__@@KQEAX@Z@4HA 000000018001cdfa f   MSVCRT:dll_dllmain.obj
 0001:0001be30       __scrt_is_nonwritable_in_current_image$filt$0 000000018001ce30 f   MSVCRT:utility.obj
 0002:000003a0       ?iv@?1??SystemCore_setup@@9@9 000000018001d3a0     m_r9npojpcpE1nIt6wcZfq3F.obj
 0002:000003a8       ?iv1@?1??SystemCore_setup@@9@9 000000018001d3a8     m_r9npojpcpE1nIt6wcZfq3F.obj
 0002:000003b0       ?iv2@?1??SystemCore_setup@@9@9 000000018001d3b0     m_r9npojpcpE1nIt6wcZfq3F.obj
 0002:000003b8       ?iv@?1??mw__internal__call__reset@@9@9 000000018001d3b8     m_r9npojpcpE1nIt6wcZfq3F.obj
 0002:000003c0       ?iv1@?1??mw__internal__call__reset@@9@9 000000018001d3c0     m_r9npojpcpE1nIt6wcZfq3F.obj
 0002:000003c8       ?iv2@?1??mw__internal__call__reset@@9@9 000000018001d3c8     m_r9npojpcpE1nIt6wcZfq3F.obj
 0002:000003d0       ?iv@?1??mw__internal__call__step@@9@9 000000018001d3d0     m_r9npojpcpE1nIt6wcZfq3F.obj
 0002:000003d8       ?iv1@?1??mw__internal__call__step@@9@9 000000018001d3d8     m_r9npojpcpE1nIt6wcZfq3F.obj
 0002:000003e0       ?iv2@?1??mw__internal__call__step@@9@9 000000018001d3e0     m_r9npojpcpE1nIt6wcZfq3F.obj
 0002:000003e8       ?dims@?1??c_emlrt_marshallIn@@9@9 000000018001d3e8     m_r9npojpcpE1nIt6wcZfq3F.obj
 0002:000003ec       ?dims@?1??g_emlrt_marshallIn@@9@9 000000018001d3ec     m_r9npojpcpE1nIt6wcZfq3F.obj
 0002:000003f0       ?dims@?1??h_emlrt_marshallIn@@9@9 000000018001d3f0     m_r9npojpcpE1nIt6wcZfq3F.obj
 0002:000003f8       ?iv@?1??SystemCore_setup@@9@9 000000018001d3f8     m_DH3jGOJ4u96z2aK3hkI3OE.obj
 0002:00000400       ?iv1@?1??SystemCore_setup@@9@9 000000018001d400     m_DH3jGOJ4u96z2aK3hkI3OE.obj
 0002:00000408       ?iv2@?1??SystemCore_setup@@9@9 000000018001d408     m_DH3jGOJ4u96z2aK3hkI3OE.obj
 0002:00000410       ?iv@?1??mw__internal__call__reset@@9@9 000000018001d410     m_DH3jGOJ4u96z2aK3hkI3OE.obj
 0002:00000418       ?iv1@?1??mw__internal__call__reset@@9@9 000000018001d418     m_DH3jGOJ4u96z2aK3hkI3OE.obj
 0002:00000420       ?iv2@?1??mw__internal__call__reset@@9@9 000000018001d420     m_DH3jGOJ4u96z2aK3hkI3OE.obj
 0002:00000428       ?iv@?1??mw__internal__call__step@@9@9 000000018001d428     m_DH3jGOJ4u96z2aK3hkI3OE.obj
 0002:00000430       ?iv1@?1??mw__internal__call__step@@9@9 000000018001d430     m_DH3jGOJ4u96z2aK3hkI3OE.obj
 0002:00000438       ?iv2@?1??mw__internal__call__step@@9@9 000000018001d438     m_DH3jGOJ4u96z2aK3hkI3OE.obj
 0002:00000440       ?dims@?1??c_emlrt_marshallIn@@9@9 000000018001d440     m_DH3jGOJ4u96z2aK3hkI3OE.obj
 0002:00000444       ?dims@?1??g_emlrt_marshallIn@@9@9 000000018001d444     m_DH3jGOJ4u96z2aK3hkI3OE.obj
 0002:00000448       ?dims@?1??h_emlrt_marshallIn@@9@9 000000018001d448     m_DH3jGOJ4u96z2aK3hkI3OE.obj
 0002:00000450       ?iv@?1??SystemCore_setup@@9@9 000000018001d450     m_zBcJJKdPFoobubnOzm2A4C.obj
 0002:00000458       ?iv1@?1??SystemCore_setup@@9@9 000000018001d458     m_zBcJJKdPFoobubnOzm2A4C.obj
 0002:00000460       ?iv2@?1??SystemCore_setup@@9@9 000000018001d460     m_zBcJJKdPFoobubnOzm2A4C.obj
 0002:00000468       ?iv@?1??mw__internal__call__reset@@9@9 000000018001d468     m_zBcJJKdPFoobubnOzm2A4C.obj
 0002:00000470       ?iv1@?1??mw__internal__call__reset@@9@9 000000018001d470     m_zBcJJKdPFoobubnOzm2A4C.obj
 0002:00000478       ?iv2@?1??mw__internal__call__reset@@9@9 000000018001d478     m_zBcJJKdPFoobubnOzm2A4C.obj
 0002:00000480       ?iv@?1??mw__internal__call__step@@9@9 000000018001d480     m_zBcJJKdPFoobubnOzm2A4C.obj
 0002:00000488       ?iv1@?1??mw__internal__call__step@@9@9 000000018001d488     m_zBcJJKdPFoobubnOzm2A4C.obj
 0002:00000490       ?iv2@?1??mw__internal__call__step@@9@9 000000018001d490     m_zBcJJKdPFoobubnOzm2A4C.obj
 0002:00000498       ?dims@?1??c_emlrt_marshallIn@@9@9 000000018001d498     m_zBcJJKdPFoobubnOzm2A4C.obj
 0002:0000049c       ?dims@?1??g_emlrt_marshallIn@@9@9 000000018001d49c     m_zBcJJKdPFoobubnOzm2A4C.obj
 0002:000004a0       ?dims@?1??h_emlrt_marshallIn@@9@9 000000018001d4a0     m_zBcJJKdPFoobubnOzm2A4C.obj
 0002:000004a8       ?iv@?1??SystemCore_setup@@9@9 000000018001d4a8     m_E5eYYMYEC9250ATstCUIJE.obj
 0002:000004b0       ?iv1@?1??SystemCore_setup@@9@9 000000018001d4b0     m_E5eYYMYEC9250ATstCUIJE.obj
 0002:000004b8       ?iv2@?1??SystemCore_setup@@9@9 000000018001d4b8     m_E5eYYMYEC9250ATstCUIJE.obj
 0002:000004c0       ?iv@?1??mw__internal__call__reset@@9@9 000000018001d4c0     m_E5eYYMYEC9250ATstCUIJE.obj
 0002:000004c8       ?iv1@?1??mw__internal__call__reset@@9@9 000000018001d4c8     m_E5eYYMYEC9250ATstCUIJE.obj
 0002:000004d0       ?iv2@?1??mw__internal__call__reset@@9@9 000000018001d4d0     m_E5eYYMYEC9250ATstCUIJE.obj
 0002:000004d8       ?iv@?1??mw__internal__call__step@@9@9 000000018001d4d8     m_E5eYYMYEC9250ATstCUIJE.obj
 0002:000004e0       ?iv1@?1??mw__internal__call__step@@9@9 000000018001d4e0     m_E5eYYMYEC9250ATstCUIJE.obj
 0002:000004e8       ?iv2@?1??mw__internal__call__step@@9@9 000000018001d4e8     m_E5eYYMYEC9250ATstCUIJE.obj
 0002:000004f0       ?dims@?1??c_emlrt_marshallIn@@9@9 000000018001d4f0     m_E5eYYMYEC9250ATstCUIJE.obj
 0002:000004f4       ?dims@?1??g_emlrt_marshallIn@@9@9 000000018001d4f4     m_E5eYYMYEC9250ATstCUIJE.obj
 0002:000004f8       ?dims@?1??h_emlrt_marshallIn@@9@9 000000018001d4f8     m_E5eYYMYEC9250ATstCUIJE.obj
 0002:00000500       ?iv@?1??SystemCore_setup@@9@9 000000018001d500     m_KfaDhNL7xJVG1u0RUxB9sH.obj
 0002:00000508       ?iv1@?1??SystemCore_setup@@9@9 000000018001d508     m_KfaDhNL7xJVG1u0RUxB9sH.obj
 0002:00000510       ?iv2@?1??SystemCore_setup@@9@9 000000018001d510     m_KfaDhNL7xJVG1u0RUxB9sH.obj
 0002:00000518       ?iv@?1??mw__internal__call__reset@@9@9 000000018001d518     m_KfaDhNL7xJVG1u0RUxB9sH.obj
 0002:00000520       ?iv1@?1??mw__internal__call__reset@@9@9 000000018001d520     m_KfaDhNL7xJVG1u0RUxB9sH.obj
 0002:00000528       ?iv2@?1??mw__internal__call__reset@@9@9 000000018001d528     m_KfaDhNL7xJVG1u0RUxB9sH.obj
 0002:00000530       ?iv@?1??mw__internal__call__step@@9@9 000000018001d530     m_KfaDhNL7xJVG1u0RUxB9sH.obj
 0002:00000538       ?iv1@?1??mw__internal__call__step@@9@9 000000018001d538     m_KfaDhNL7xJVG1u0RUxB9sH.obj
 0002:00000540       ?iv2@?1??mw__internal__call__step@@9@9 000000018001d540     m_KfaDhNL7xJVG1u0RUxB9sH.obj
 0002:00000548       ?dims@?1??c_emlrt_marshallIn@@9@9 000000018001d548     m_KfaDhNL7xJVG1u0RUxB9sH.obj
 0002:0000054c       ?dims@?1??g_emlrt_marshallIn@@9@9 000000018001d54c     m_KfaDhNL7xJVG1u0RUxB9sH.obj
 0002:00000550       ?dims@?1??h_emlrt_marshallIn@@9@9 000000018001d550     m_KfaDhNL7xJVG1u0RUxB9sH.obj
 0002:00000558       ?iv@?1??SystemCore_setup@@9@9 000000018001d558     m_nyucgZWjM3Ai1CT2jftVoF.obj
 0002:00000560       ?iv1@?1??SystemCore_setup@@9@9 000000018001d560     m_nyucgZWjM3Ai1CT2jftVoF.obj
 0002:00000568       ?iv2@?1??SystemCore_setup@@9@9 000000018001d568     m_nyucgZWjM3Ai1CT2jftVoF.obj
 0002:00000570       ?iv@?1??mw__internal__call__reset@@9@9 000000018001d570     m_nyucgZWjM3Ai1CT2jftVoF.obj
 0002:00000578       ?iv1@?1??mw__internal__call__reset@@9@9 000000018001d578     m_nyucgZWjM3Ai1CT2jftVoF.obj
 0002:00000580       ?iv2@?1??mw__internal__call__reset@@9@9 000000018001d580     m_nyucgZWjM3Ai1CT2jftVoF.obj
 0002:00000588       ?iv@?1??mw__internal__call__step@@9@9 000000018001d588     m_nyucgZWjM3Ai1CT2jftVoF.obj
 0002:00000590       ?iv1@?1??mw__internal__call__step@@9@9 000000018001d590     m_nyucgZWjM3Ai1CT2jftVoF.obj
 0002:00000598       ?iv2@?1??mw__internal__call__step@@9@9 000000018001d598     m_nyucgZWjM3Ai1CT2jftVoF.obj
 0002:000005a0       ?dims@?1??c_emlrt_marshallIn@@9@9 000000018001d5a0     m_nyucgZWjM3Ai1CT2jftVoF.obj
 0002:000005a4       ?dims@?1??g_emlrt_marshallIn@@9@9 000000018001d5a4     m_nyucgZWjM3Ai1CT2jftVoF.obj
 0002:000005a8       ?dims@?1??h_emlrt_marshallIn@@9@9 000000018001d5a8     m_nyucgZWjM3Ai1CT2jftVoF.obj
 0002:000005b0       ?iv@?1??SystemCore_setup@@9@9 000000018001d5b0     m_KDwHGQ2xXp4wmWKPmnDGqC.obj
 0002:000005b8       ?iv1@?1??SystemCore_setup@@9@9 000000018001d5b8     m_KDwHGQ2xXp4wmWKPmnDGqC.obj
 0002:000005c0       ?iv2@?1??SystemCore_setup@@9@9 000000018001d5c0     m_KDwHGQ2xXp4wmWKPmnDGqC.obj
 0002:000005c8       ?iv@?1??mw__internal__call__reset@@9@9 000000018001d5c8     m_KDwHGQ2xXp4wmWKPmnDGqC.obj
 0002:000005d0       ?iv1@?1??mw__internal__call__reset@@9@9 000000018001d5d0     m_KDwHGQ2xXp4wmWKPmnDGqC.obj
 0002:000005d8       ?iv2@?1??mw__internal__call__reset@@9@9 000000018001d5d8     m_KDwHGQ2xXp4wmWKPmnDGqC.obj
 0002:000005e0       ?iv@?1??mw__internal__call__step@@9@9 000000018001d5e0     m_KDwHGQ2xXp4wmWKPmnDGqC.obj
 0002:000005e8       ?iv1@?1??mw__internal__call__step@@9@9 000000018001d5e8     m_KDwHGQ2xXp4wmWKPmnDGqC.obj
 0002:000005f0       ?iv2@?1??mw__internal__call__step@@9@9 000000018001d5f0     m_KDwHGQ2xXp4wmWKPmnDGqC.obj
 0002:000005f8       ?dims@?1??c_emlrt_marshallIn@@9@9 000000018001d5f8     m_KDwHGQ2xXp4wmWKPmnDGqC.obj
 0002:000005fc       ?dims@?1??g_emlrt_marshallIn@@9@9 000000018001d5fc     m_KDwHGQ2xXp4wmWKPmnDGqC.obj
 0002:00000600       ?dims@?1??h_emlrt_marshallIn@@9@9 000000018001d600     m_KDwHGQ2xXp4wmWKPmnDGqC.obj
 0002:00000608       ?iv@?1??SystemCore_setup@@9@9 000000018001d608     m_N6wSUtJycDbE8bKJByzvlC.obj
 0002:00000610       ?iv1@?1??SystemCore_setup@@9@9 000000018001d610     m_N6wSUtJycDbE8bKJByzvlC.obj
 0002:00000618       ?iv2@?1??SystemCore_setup@@9@9 000000018001d618     m_N6wSUtJycDbE8bKJByzvlC.obj
 0002:00000620       ?iv@?1??mw__internal__call__reset@@9@9 000000018001d620     m_N6wSUtJycDbE8bKJByzvlC.obj
 0002:00000628       ?iv1@?1??mw__internal__call__reset@@9@9 000000018001d628     m_N6wSUtJycDbE8bKJByzvlC.obj
 0002:00000630       ?iv2@?1??mw__internal__call__reset@@9@9 000000018001d630     m_N6wSUtJycDbE8bKJByzvlC.obj
 0002:00000638       ?iv@?1??mw__internal__call__step@@9@9 000000018001d638     m_N6wSUtJycDbE8bKJByzvlC.obj
 0002:00000640       ?iv1@?1??mw__internal__call__step@@9@9 000000018001d640     m_N6wSUtJycDbE8bKJByzvlC.obj
 0002:00000648       ?iv2@?1??mw__internal__call__step@@9@9 000000018001d648     m_N6wSUtJycDbE8bKJByzvlC.obj
 0002:00000650       ?dims@?1??c_emlrt_marshallIn@@9@9 000000018001d650     m_N6wSUtJycDbE8bKJByzvlC.obj
 0002:00000654       ?dims@?1??g_emlrt_marshallIn@@9@9 000000018001d654     m_N6wSUtJycDbE8bKJByzvlC.obj
 0002:00000658       ?dims@?1??h_emlrt_marshallIn@@9@9 000000018001d658     m_N6wSUtJycDbE8bKJByzvlC.obj
 0002:00000660       ?iv@?1??SystemCore_setup@@9@9 000000018001d660     m_rv2q6Si9yo15c6LurhHJ.obj
 0002:00000668       ?iv1@?1??SystemCore_setup@@9@9 000000018001d668     m_rv2q6Si9yo15c6LurhHJ.obj
 0002:00000670       ?iv2@?1??SystemCore_setup@@9@9 000000018001d670     m_rv2q6Si9yo15c6LurhHJ.obj
 0002:00000678       ?iv@?1??mw__internal__call__reset@@9@9 000000018001d678     m_rv2q6Si9yo15c6LurhHJ.obj
 0002:00000680       ?iv1@?1??mw__internal__call__reset@@9@9 000000018001d680     m_rv2q6Si9yo15c6LurhHJ.obj
 0002:00000688       ?iv2@?1??mw__internal__call__reset@@9@9 000000018001d688     m_rv2q6Si9yo15c6LurhHJ.obj
 0002:00000690       ?iv@?1??mw__internal__call__step@@9@9 000000018001d690     m_rv2q6Si9yo15c6LurhHJ.obj
 0002:00000698       ?iv1@?1??mw__internal__call__step@@9@9 000000018001d698     m_rv2q6Si9yo15c6LurhHJ.obj
 0002:000006a0       ?iv2@?1??mw__internal__call__step@@9@9 000000018001d6a0     m_rv2q6Si9yo15c6LurhHJ.obj
 0002:000006a8       ?dims@?1??c_emlrt_marshallIn@@9@9 000000018001d6a8     m_rv2q6Si9yo15c6LurhHJ.obj
 0002:000006ac       ?dims@?1??g_emlrt_marshallIn@@9@9 000000018001d6ac     m_rv2q6Si9yo15c6LurhHJ.obj
 0002:000006b0       ?dims@?1??h_emlrt_marshallIn@@9@9 000000018001d6b0     m_rv2q6Si9yo15c6LurhHJ.obj
 0002:000006b8       ?iv@?1??SystemCore_setup@@9@9 000000018001d6b8     m_0IWK4xPALvAwGYJfiJSKHC.obj
 0002:000006c0       ?iv1@?1??SystemCore_setup@@9@9 000000018001d6c0     m_0IWK4xPALvAwGYJfiJSKHC.obj
 0002:000006c8       ?iv2@?1??SystemCore_setup@@9@9 000000018001d6c8     m_0IWK4xPALvAwGYJfiJSKHC.obj
 0002:000006d0       ?iv@?1??mw__internal__call__reset@@9@9 000000018001d6d0     m_0IWK4xPALvAwGYJfiJSKHC.obj
 0002:000006d8       ?iv1@?1??mw__internal__call__reset@@9@9 000000018001d6d8     m_0IWK4xPALvAwGYJfiJSKHC.obj
 0002:000006e0       ?iv2@?1??mw__internal__call__reset@@9@9 000000018001d6e0     m_0IWK4xPALvAwGYJfiJSKHC.obj
 0002:000006e8       ?iv@?1??mw__internal__call__step@@9@9 000000018001d6e8     m_0IWK4xPALvAwGYJfiJSKHC.obj
 0002:000006f0       ?iv1@?1??mw__internal__call__step@@9@9 000000018001d6f0     m_0IWK4xPALvAwGYJfiJSKHC.obj
 0002:000006f8       ?iv2@?1??mw__internal__call__step@@9@9 000000018001d6f8     m_0IWK4xPALvAwGYJfiJSKHC.obj
 0002:00000700       ?dims@?1??c_emlrt_marshallIn@@9@9 000000018001d700     m_0IWK4xPALvAwGYJfiJSKHC.obj
 0002:00000704       ?dims@?1??g_emlrt_marshallIn@@9@9 000000018001d704     m_0IWK4xPALvAwGYJfiJSKHC.obj
 0002:00000708       ?dims@?1??h_emlrt_marshallIn@@9@9 000000018001d708     m_0IWK4xPALvAwGYJfiJSKHC.obj
 0002:000007c8       GS_ExceptionPointers       000000018001d7c8     MSVCRT:gs_report.obj
 0002:00000f40       $unwind$cgxe_Child_App_method_dispatcher 000000018001df40     Child_App_cgxe.obj
 0002:00000f48       $unwind$method_dispatcher_r9npojpcpE1nIt6wcZfq3F 000000018001df48     m_r9npojpcpE1nIt6wcZfq3F.obj
 0002:00000f50       $unwind$cgxe_mdl_start     000000018001df50     m_r9npojpcpE1nIt6wcZfq3F.obj
 0002:00000f58       $unwind$cgxe_mdl_initialize 000000018001df58     m_r9npojpcpE1nIt6wcZfq3F.obj
 0002:00000f60       $unwind$cgxe_mdl_outputs   000000018001df60     m_r9npojpcpE1nIt6wcZfq3F.obj
 0002:00000f68       $unwind$cgxe_mdl_terminate 000000018001df68     m_r9npojpcpE1nIt6wcZfq3F.obj
 0002:00000f70       $unwind$mw__internal__call__setup 000000018001df70     m_r9npojpcpE1nIt6wcZfq3F.obj
 0002:00000f78       $unwind$SystemCore_setup   000000018001df78     m_r9npojpcpE1nIt6wcZfq3F.obj
 0002:00000f88       $unwind$mw__internal__call__reset 000000018001df88     m_r9npojpcpE1nIt6wcZfq3F.obj
 0002:00000f98       $unwind$mw__internal__call__step 000000018001df98     m_r9npojpcpE1nIt6wcZfq3F.obj
 0002:00000fa8       $unwind$emlrt_marshallOut  000000018001dfa8     m_r9npojpcpE1nIt6wcZfq3F.obj
 0002:00000fb0       $unwind$cgxe_mdl_get_sim_state 000000018001dfb0     m_r9npojpcpE1nIt6wcZfq3F.obj
 0002:00000fb8       $unwind$emlrt_marshallIn   000000018001dfb8     m_r9npojpcpE1nIt6wcZfq3F.obj
 0002:00000fc0       $unwind$b_emlrt_marshallIn 000000018001dfc0     m_r9npojpcpE1nIt6wcZfq3F.obj
 0002:00000fc8       $unwind$c_emlrt_marshallIn 000000018001dfc8     m_r9npojpcpE1nIt6wcZfq3F.obj
 0002:00000fd0       $unwind$d_emlrt_marshallIn 000000018001dfd0     m_r9npojpcpE1nIt6wcZfq3F.obj
 0002:00000fd8       $unwind$e_emlrt_marshallIn 000000018001dfd8     m_r9npojpcpE1nIt6wcZfq3F.obj
 0002:00000fe0       $unwind$f_emlrt_marshallIn 000000018001dfe0     m_r9npojpcpE1nIt6wcZfq3F.obj
 0002:00000fe8       $unwind$cgxe_mdl_set_sim_state 000000018001dfe8     m_r9npojpcpE1nIt6wcZfq3F.obj
 0002:00000ff0       $unwind$message            000000018001dff0     m_r9npojpcpE1nIt6wcZfq3F.obj
 0002:00000ff8       $unwind$getString          000000018001dff8     m_r9npojpcpE1nIt6wcZfq3F.obj
 0002:00001000       $unwind$error              000000018001e000     m_r9npojpcpE1nIt6wcZfq3F.obj
 0002:00001008       $unwind$g_emlrt_marshallIn 000000018001e008     m_r9npojpcpE1nIt6wcZfq3F.obj
 0002:00001010       $unwind$h_emlrt_marshallIn 000000018001e010     m_r9npojpcpE1nIt6wcZfq3F.obj
 0002:00001018       $unwind$init_simulink_io_address 000000018001e018     m_r9npojpcpE1nIt6wcZfq3F.obj
 0002:00001020       $unwind$mdlOutputs_r9npojpcpE1nIt6wcZfq3F 000000018001e020     m_r9npojpcpE1nIt6wcZfq3F.obj
 0002:00001028       $unwind$mdlInitialize_r9npojpcpE1nIt6wcZfq3F 000000018001e028     m_r9npojpcpE1nIt6wcZfq3F.obj
 0002:00001030       $unwind$mdlUpdate_r9npojpcpE1nIt6wcZfq3F 000000018001e030     m_r9npojpcpE1nIt6wcZfq3F.obj
 0002:00001038       $unwind$getSimState_r9npojpcpE1nIt6wcZfq3F 000000018001e038     m_r9npojpcpE1nIt6wcZfq3F.obj
 0002:00001040       $unwind$setSimState_r9npojpcpE1nIt6wcZfq3F 000000018001e040     m_r9npojpcpE1nIt6wcZfq3F.obj
 0002:00001048       $unwind$mdlTerminate_r9npojpcpE1nIt6wcZfq3F 000000018001e048     m_r9npojpcpE1nIt6wcZfq3F.obj
 0002:00001050       $unwind$mdlEnable_r9npojpcpE1nIt6wcZfq3F 000000018001e050     m_r9npojpcpE1nIt6wcZfq3F.obj
 0002:00001058       $unwind$mdlDisable_r9npojpcpE1nIt6wcZfq3F 000000018001e058     m_r9npojpcpE1nIt6wcZfq3F.obj
 0002:00001060       $unwind$mdlStart_r9npojpcpE1nIt6wcZfq3F 000000018001e060     m_r9npojpcpE1nIt6wcZfq3F.obj
 0002:00001068       $unwind$cgxe_r9npojpcpE1nIt6wcZfq3F_BuildInfoUpdate 000000018001e068     m_r9npojpcpE1nIt6wcZfq3F.obj
 0002:00001070       $unwind$cgxe_r9npojpcpE1nIt6wcZfq3F_fallback_info 000000018001e070     m_r9npojpcpE1nIt6wcZfq3F.obj
 0002:00001078       $unwind$method_dispatcher_DH3jGOJ4u96z2aK3hkI3OE 000000018001e078     m_DH3jGOJ4u96z2aK3hkI3OE.obj
 0002:00001080       $unwind$cgxe_mdl_start     000000018001e080     m_DH3jGOJ4u96z2aK3hkI3OE.obj
 0002:00001088       $unwind$cgxe_mdl_initialize 000000018001e088     m_DH3jGOJ4u96z2aK3hkI3OE.obj
 0002:00001090       $unwind$cgxe_mdl_outputs   000000018001e090     m_DH3jGOJ4u96z2aK3hkI3OE.obj
 0002:00001098       $unwind$cgxe_mdl_terminate 000000018001e098     m_DH3jGOJ4u96z2aK3hkI3OE.obj
 0002:000010a0       $unwind$mw__internal__system__terminate__fcn 000000018001e0a0     m_DH3jGOJ4u96z2aK3hkI3OE.obj
 0002:000010a8       $unwind$mw__internal__call__setup 000000018001e0a8     m_DH3jGOJ4u96z2aK3hkI3OE.obj
 0002:000010b0       $unwind$SystemCore_setup   000000018001e0b0     m_DH3jGOJ4u96z2aK3hkI3OE.obj
 0002:000010c0       $unwind$mw__internal__call__reset 000000018001e0c0     m_DH3jGOJ4u96z2aK3hkI3OE.obj
 0002:000010d0       $unwind$mw__internal__call__step 000000018001e0d0     m_DH3jGOJ4u96z2aK3hkI3OE.obj
 0002:000010e0       $unwind$emlrt_marshallOut  000000018001e0e0     m_DH3jGOJ4u96z2aK3hkI3OE.obj
 0002:000010e8       $unwind$cgxe_mdl_get_sim_state 000000018001e0e8     m_DH3jGOJ4u96z2aK3hkI3OE.obj
 0002:000010f0       $unwind$emlrt_marshallIn   000000018001e0f0     m_DH3jGOJ4u96z2aK3hkI3OE.obj
 0002:000010fc       $unwind$b_emlrt_marshallIn 000000018001e0fc     m_DH3jGOJ4u96z2aK3hkI3OE.obj
 0002:00001110       $unwind$c_emlrt_marshallIn 000000018001e110     m_DH3jGOJ4u96z2aK3hkI3OE.obj
 0002:00001124       $unwind$d_emlrt_marshallIn 000000018001e124     m_DH3jGOJ4u96z2aK3hkI3OE.obj
 0002:0000112c       $unwind$e_emlrt_marshallIn 000000018001e12c     m_DH3jGOJ4u96z2aK3hkI3OE.obj
 0002:00001134       $unwind$f_emlrt_marshallIn 000000018001e134     m_DH3jGOJ4u96z2aK3hkI3OE.obj
 0002:0000113c       $unwind$cgxe_mdl_set_sim_state 000000018001e13c     m_DH3jGOJ4u96z2aK3hkI3OE.obj
 0002:00001144       $unwind$message            000000018001e144     m_DH3jGOJ4u96z2aK3hkI3OE.obj
 0002:0000114c       $unwind$getString          000000018001e14c     m_DH3jGOJ4u96z2aK3hkI3OE.obj
 0002:00001154       $unwind$error              000000018001e154     m_DH3jGOJ4u96z2aK3hkI3OE.obj
 0002:0000115c       $unwind$g_emlrt_marshallIn 000000018001e15c     m_DH3jGOJ4u96z2aK3hkI3OE.obj
 0002:00001164       $unwind$h_emlrt_marshallIn 000000018001e164     m_DH3jGOJ4u96z2aK3hkI3OE.obj
 0002:0000116c       $unwind$init_simulink_io_address 000000018001e16c     m_DH3jGOJ4u96z2aK3hkI3OE.obj
 0002:00001174       $unwind$mdlOutputs_DH3jGOJ4u96z2aK3hkI3OE 000000018001e174     m_DH3jGOJ4u96z2aK3hkI3OE.obj
 0002:0000117c       $unwind$mdlInitialize_DH3jGOJ4u96z2aK3hkI3OE 000000018001e17c     m_DH3jGOJ4u96z2aK3hkI3OE.obj
 0002:00001184       $unwind$mdlUpdate_DH3jGOJ4u96z2aK3hkI3OE 000000018001e184     m_DH3jGOJ4u96z2aK3hkI3OE.obj
 0002:0000118c       $unwind$getSimState_DH3jGOJ4u96z2aK3hkI3OE 000000018001e18c     m_DH3jGOJ4u96z2aK3hkI3OE.obj
 0002:00001194       $unwind$setSimState_DH3jGOJ4u96z2aK3hkI3OE 000000018001e194     m_DH3jGOJ4u96z2aK3hkI3OE.obj
 0002:0000119c       $unwind$mdlTerminate_DH3jGOJ4u96z2aK3hkI3OE 000000018001e19c     m_DH3jGOJ4u96z2aK3hkI3OE.obj
 0002:000011a4       $unwind$mdlEnable_DH3jGOJ4u96z2aK3hkI3OE 000000018001e1a4     m_DH3jGOJ4u96z2aK3hkI3OE.obj
 0002:000011ac       $unwind$mdlDisable_DH3jGOJ4u96z2aK3hkI3OE 000000018001e1ac     m_DH3jGOJ4u96z2aK3hkI3OE.obj
 0002:000011b4       $unwind$mdlStart_DH3jGOJ4u96z2aK3hkI3OE 000000018001e1b4     m_DH3jGOJ4u96z2aK3hkI3OE.obj
 0002:000011bc       $unwind$cgxe_DH3jGOJ4u96z2aK3hkI3OE_BuildInfoUpdate 000000018001e1bc     m_DH3jGOJ4u96z2aK3hkI3OE.obj
 0002:000011c4       $unwind$cgxe_DH3jGOJ4u96z2aK3hkI3OE_fallback_info 000000018001e1c4     m_DH3jGOJ4u96z2aK3hkI3OE.obj
 0002:000011cc       $unwind$method_dispatcher_zBcJJKdPFoobubnOzm2A4C 000000018001e1cc     m_zBcJJKdPFoobubnOzm2A4C.obj
 0002:000011d4       $unwind$cgxe_mdl_start     000000018001e1d4     m_zBcJJKdPFoobubnOzm2A4C.obj
 0002:000011dc       $unwind$cgxe_mdl_initialize 000000018001e1dc     m_zBcJJKdPFoobubnOzm2A4C.obj
 0002:000011e4       $unwind$cgxe_mdl_outputs   000000018001e1e4     m_zBcJJKdPFoobubnOzm2A4C.obj
 0002:000011ec       $unwind$cgxe_mdl_terminate 000000018001e1ec     m_zBcJJKdPFoobubnOzm2A4C.obj
 0002:000011f4       $unwind$mw__internal__call__setup 000000018001e1f4     m_zBcJJKdPFoobubnOzm2A4C.obj
 0002:000011fc       $unwind$SystemCore_setup   000000018001e1fc     m_zBcJJKdPFoobubnOzm2A4C.obj
 0002:0000120c       $unwind$mw__internal__call__reset 000000018001e20c     m_zBcJJKdPFoobubnOzm2A4C.obj
 0002:0000121c       $unwind$mw__internal__call__step 000000018001e21c     m_zBcJJKdPFoobubnOzm2A4C.obj
 0002:0000122c       $unwind$emlrt_marshallOut  000000018001e22c     m_zBcJJKdPFoobubnOzm2A4C.obj
 0002:00001234       $unwind$cgxe_mdl_get_sim_state 000000018001e234     m_zBcJJKdPFoobubnOzm2A4C.obj
 0002:0000123c       $unwind$emlrt_marshallIn   000000018001e23c     m_zBcJJKdPFoobubnOzm2A4C.obj
 0002:00001244       $unwind$b_emlrt_marshallIn 000000018001e244     m_zBcJJKdPFoobubnOzm2A4C.obj
 0002:0000124c       $unwind$c_emlrt_marshallIn 000000018001e24c     m_zBcJJKdPFoobubnOzm2A4C.obj
 0002:00001254       $unwind$d_emlrt_marshallIn 000000018001e254     m_zBcJJKdPFoobubnOzm2A4C.obj
 0002:0000125c       $unwind$e_emlrt_marshallIn 000000018001e25c     m_zBcJJKdPFoobubnOzm2A4C.obj
 0002:00001264       $unwind$f_emlrt_marshallIn 000000018001e264     m_zBcJJKdPFoobubnOzm2A4C.obj
 0002:0000126c       $unwind$cgxe_mdl_set_sim_state 000000018001e26c     m_zBcJJKdPFoobubnOzm2A4C.obj
 0002:00001274       $unwind$message            000000018001e274     m_zBcJJKdPFoobubnOzm2A4C.obj
 0002:0000127c       $unwind$getString          000000018001e27c     m_zBcJJKdPFoobubnOzm2A4C.obj
 0002:00001284       $unwind$error              000000018001e284     m_zBcJJKdPFoobubnOzm2A4C.obj
 0002:0000128c       $unwind$g_emlrt_marshallIn 000000018001e28c     m_zBcJJKdPFoobubnOzm2A4C.obj
 0002:00001294       $unwind$h_emlrt_marshallIn 000000018001e294     m_zBcJJKdPFoobubnOzm2A4C.obj
 0002:0000129c       $unwind$init_simulink_io_address 000000018001e29c     m_zBcJJKdPFoobubnOzm2A4C.obj
 0002:000012a4       $unwind$mdlOutputs_zBcJJKdPFoobubnOzm2A4C 000000018001e2a4     m_zBcJJKdPFoobubnOzm2A4C.obj
 0002:000012ac       $unwind$mdlInitialize_zBcJJKdPFoobubnOzm2A4C 000000018001e2ac     m_zBcJJKdPFoobubnOzm2A4C.obj
 0002:000012b4       $unwind$mdlUpdate_zBcJJKdPFoobubnOzm2A4C 000000018001e2b4     m_zBcJJKdPFoobubnOzm2A4C.obj
 0002:000012bc       $unwind$getSimState_zBcJJKdPFoobubnOzm2A4C 000000018001e2bc     m_zBcJJKdPFoobubnOzm2A4C.obj
 0002:000012c4       $unwind$setSimState_zBcJJKdPFoobubnOzm2A4C 000000018001e2c4     m_zBcJJKdPFoobubnOzm2A4C.obj
 0002:000012cc       $unwind$mdlTerminate_zBcJJKdPFoobubnOzm2A4C 000000018001e2cc     m_zBcJJKdPFoobubnOzm2A4C.obj
 0002:000012d4       $unwind$mdlEnable_zBcJJKdPFoobubnOzm2A4C 000000018001e2d4     m_zBcJJKdPFoobubnOzm2A4C.obj
 0002:000012dc       $unwind$mdlDisable_zBcJJKdPFoobubnOzm2A4C 000000018001e2dc     m_zBcJJKdPFoobubnOzm2A4C.obj
 0002:000012e4       $unwind$mdlStart_zBcJJKdPFoobubnOzm2A4C 000000018001e2e4     m_zBcJJKdPFoobubnOzm2A4C.obj
 0002:000012ec       $unwind$cgxe_zBcJJKdPFoobubnOzm2A4C_BuildInfoUpdate 000000018001e2ec     m_zBcJJKdPFoobubnOzm2A4C.obj
 0002:000012f4       $unwind$cgxe_zBcJJKdPFoobubnOzm2A4C_fallback_info 000000018001e2f4     m_zBcJJKdPFoobubnOzm2A4C.obj
 0002:000012fc       $unwind$method_dispatcher_E5eYYMYEC9250ATstCUIJE 000000018001e2fc     m_E5eYYMYEC9250ATstCUIJE.obj
 0002:00001304       $unwind$cgxe_mdl_start     000000018001e304     m_E5eYYMYEC9250ATstCUIJE.obj
 0002:0000130c       $unwind$cgxe_mdl_initialize 000000018001e30c     m_E5eYYMYEC9250ATstCUIJE.obj
 0002:00001314       $unwind$cgxe_mdl_outputs   000000018001e314     m_E5eYYMYEC9250ATstCUIJE.obj
 0002:0000131c       $unwind$cgxe_mdl_terminate 000000018001e31c     m_E5eYYMYEC9250ATstCUIJE.obj
 0002:00001324       $unwind$mw__internal__call__setup 000000018001e324     m_E5eYYMYEC9250ATstCUIJE.obj
 0002:0000132c       $unwind$SystemCore_setup   000000018001e32c     m_E5eYYMYEC9250ATstCUIJE.obj
 0002:0000133c       $unwind$mw__internal__call__reset 000000018001e33c     m_E5eYYMYEC9250ATstCUIJE.obj
 0002:0000134c       $unwind$mw__internal__call__step 000000018001e34c     m_E5eYYMYEC9250ATstCUIJE.obj
 0002:0000135c       $unwind$emlrt_marshallOut  000000018001e35c     m_E5eYYMYEC9250ATstCUIJE.obj
 0002:00001364       $unwind$cgxe_mdl_get_sim_state 000000018001e364     m_E5eYYMYEC9250ATstCUIJE.obj
 0002:0000136c       $unwind$emlrt_marshallIn   000000018001e36c     m_E5eYYMYEC9250ATstCUIJE.obj
 0002:00001374       $unwind$b_emlrt_marshallIn 000000018001e374     m_E5eYYMYEC9250ATstCUIJE.obj
 0002:0000137c       $unwind$c_emlrt_marshallIn 000000018001e37c     m_E5eYYMYEC9250ATstCUIJE.obj
 0002:00001384       $unwind$d_emlrt_marshallIn 000000018001e384     m_E5eYYMYEC9250ATstCUIJE.obj
 0002:0000138c       $unwind$e_emlrt_marshallIn 000000018001e38c     m_E5eYYMYEC9250ATstCUIJE.obj
 0002:00001394       $unwind$f_emlrt_marshallIn 000000018001e394     m_E5eYYMYEC9250ATstCUIJE.obj
 0002:0000139c       $unwind$cgxe_mdl_set_sim_state 000000018001e39c     m_E5eYYMYEC9250ATstCUIJE.obj
 0002:000013a4       $unwind$message            000000018001e3a4     m_E5eYYMYEC9250ATstCUIJE.obj
 0002:000013ac       $unwind$getString          000000018001e3ac     m_E5eYYMYEC9250ATstCUIJE.obj
 0002:000013b4       $unwind$error              000000018001e3b4     m_E5eYYMYEC9250ATstCUIJE.obj
 0002:000013bc       $unwind$g_emlrt_marshallIn 000000018001e3bc     m_E5eYYMYEC9250ATstCUIJE.obj
 0002:000013c4       $unwind$h_emlrt_marshallIn 000000018001e3c4     m_E5eYYMYEC9250ATstCUIJE.obj
 0002:000013cc       $unwind$init_simulink_io_address 000000018001e3cc     m_E5eYYMYEC9250ATstCUIJE.obj
 0002:000013d4       $unwind$mdlOutputs_E5eYYMYEC9250ATstCUIJE 000000018001e3d4     m_E5eYYMYEC9250ATstCUIJE.obj
 0002:000013dc       $unwind$mdlInitialize_E5eYYMYEC9250ATstCUIJE 000000018001e3dc     m_E5eYYMYEC9250ATstCUIJE.obj
 0002:000013e4       $unwind$mdlUpdate_E5eYYMYEC9250ATstCUIJE 000000018001e3e4     m_E5eYYMYEC9250ATstCUIJE.obj
 0002:000013ec       $unwind$getSimState_E5eYYMYEC9250ATstCUIJE 000000018001e3ec     m_E5eYYMYEC9250ATstCUIJE.obj
 0002:000013f4       $unwind$setSimState_E5eYYMYEC9250ATstCUIJE 000000018001e3f4     m_E5eYYMYEC9250ATstCUIJE.obj
 0002:000013fc       $unwind$mdlTerminate_E5eYYMYEC9250ATstCUIJE 000000018001e3fc     m_E5eYYMYEC9250ATstCUIJE.obj
 0002:00001404       $unwind$mdlEnable_E5eYYMYEC9250ATstCUIJE 000000018001e404     m_E5eYYMYEC9250ATstCUIJE.obj
 0002:0000140c       $unwind$mdlDisable_E5eYYMYEC9250ATstCUIJE 000000018001e40c     m_E5eYYMYEC9250ATstCUIJE.obj
 0002:00001414       $unwind$mdlStart_E5eYYMYEC9250ATstCUIJE 000000018001e414     m_E5eYYMYEC9250ATstCUIJE.obj
 0002:0000141c       $unwind$cgxe_E5eYYMYEC9250ATstCUIJE_BuildInfoUpdate 000000018001e41c     m_E5eYYMYEC9250ATstCUIJE.obj
 0002:00001424       $unwind$cgxe_E5eYYMYEC9250ATstCUIJE_fallback_info 000000018001e424     m_E5eYYMYEC9250ATstCUIJE.obj
 0002:0000142c       $unwind$method_dispatcher_KfaDhNL7xJVG1u0RUxB9sH 000000018001e42c     m_KfaDhNL7xJVG1u0RUxB9sH.obj
 0002:00001434       $unwind$cgxe_mdl_start     000000018001e434     m_KfaDhNL7xJVG1u0RUxB9sH.obj
 0002:0000143c       $unwind$cgxe_mdl_initialize 000000018001e43c     m_KfaDhNL7xJVG1u0RUxB9sH.obj
 0002:00001444       $unwind$cgxe_mdl_outputs   000000018001e444     m_KfaDhNL7xJVG1u0RUxB9sH.obj
 0002:0000144c       $unwind$cgxe_mdl_terminate 000000018001e44c     m_KfaDhNL7xJVG1u0RUxB9sH.obj
 0002:00001454       $unwind$mw__internal__call__setup 000000018001e454     m_KfaDhNL7xJVG1u0RUxB9sH.obj
 0002:0000145c       $unwind$SystemCore_setup   000000018001e45c     m_KfaDhNL7xJVG1u0RUxB9sH.obj
 0002:0000146c       $unwind$mw__internal__call__reset 000000018001e46c     m_KfaDhNL7xJVG1u0RUxB9sH.obj
 0002:0000147c       $unwind$mw__internal__call__step 000000018001e47c     m_KfaDhNL7xJVG1u0RUxB9sH.obj
 0002:0000148c       $unwind$emlrt_marshallOut  000000018001e48c     m_KfaDhNL7xJVG1u0RUxB9sH.obj
 0002:00001494       $unwind$cgxe_mdl_get_sim_state 000000018001e494     m_KfaDhNL7xJVG1u0RUxB9sH.obj
 0002:0000149c       $unwind$emlrt_marshallIn   000000018001e49c     m_KfaDhNL7xJVG1u0RUxB9sH.obj
 0002:000014a4       $unwind$b_emlrt_marshallIn 000000018001e4a4     m_KfaDhNL7xJVG1u0RUxB9sH.obj
 0002:000014ac       $unwind$c_emlrt_marshallIn 000000018001e4ac     m_KfaDhNL7xJVG1u0RUxB9sH.obj
 0002:000014b4       $unwind$d_emlrt_marshallIn 000000018001e4b4     m_KfaDhNL7xJVG1u0RUxB9sH.obj
 0002:000014bc       $unwind$e_emlrt_marshallIn 000000018001e4bc     m_KfaDhNL7xJVG1u0RUxB9sH.obj
 0002:000014c4       $unwind$f_emlrt_marshallIn 000000018001e4c4     m_KfaDhNL7xJVG1u0RUxB9sH.obj
 0002:000014cc       $unwind$cgxe_mdl_set_sim_state 000000018001e4cc     m_KfaDhNL7xJVG1u0RUxB9sH.obj
 0002:000014d4       $unwind$message            000000018001e4d4     m_KfaDhNL7xJVG1u0RUxB9sH.obj
 0002:000014dc       $unwind$getString          000000018001e4dc     m_KfaDhNL7xJVG1u0RUxB9sH.obj
 0002:000014e4       $unwind$error              000000018001e4e4     m_KfaDhNL7xJVG1u0RUxB9sH.obj
 0002:000014ec       $unwind$g_emlrt_marshallIn 000000018001e4ec     m_KfaDhNL7xJVG1u0RUxB9sH.obj
 0002:000014f4       $unwind$h_emlrt_marshallIn 000000018001e4f4     m_KfaDhNL7xJVG1u0RUxB9sH.obj
 0002:000014fc       $unwind$init_simulink_io_address 000000018001e4fc     m_KfaDhNL7xJVG1u0RUxB9sH.obj
 0002:00001504       $unwind$mdlOutputs_KfaDhNL7xJVG1u0RUxB9sH 000000018001e504     m_KfaDhNL7xJVG1u0RUxB9sH.obj
 0002:0000150c       $unwind$mdlInitialize_KfaDhNL7xJVG1u0RUxB9sH 000000018001e50c     m_KfaDhNL7xJVG1u0RUxB9sH.obj
 0002:00001514       $unwind$mdlUpdate_KfaDhNL7xJVG1u0RUxB9sH 000000018001e514     m_KfaDhNL7xJVG1u0RUxB9sH.obj
 0002:0000151c       $unwind$getSimState_KfaDhNL7xJVG1u0RUxB9sH 000000018001e51c     m_KfaDhNL7xJVG1u0RUxB9sH.obj
 0002:00001524       $unwind$setSimState_KfaDhNL7xJVG1u0RUxB9sH 000000018001e524     m_KfaDhNL7xJVG1u0RUxB9sH.obj
 0002:0000152c       $unwind$mdlTerminate_KfaDhNL7xJVG1u0RUxB9sH 000000018001e52c     m_KfaDhNL7xJVG1u0RUxB9sH.obj
 0002:00001534       $unwind$mdlEnable_KfaDhNL7xJVG1u0RUxB9sH 000000018001e534     m_KfaDhNL7xJVG1u0RUxB9sH.obj
 0002:0000153c       $unwind$mdlDisable_KfaDhNL7xJVG1u0RUxB9sH 000000018001e53c     m_KfaDhNL7xJVG1u0RUxB9sH.obj
 0002:00001544       $unwind$mdlStart_KfaDhNL7xJVG1u0RUxB9sH 000000018001e544     m_KfaDhNL7xJVG1u0RUxB9sH.obj
 0002:0000154c       $unwind$cgxe_KfaDhNL7xJVG1u0RUxB9sH_BuildInfoUpdate 000000018001e54c     m_KfaDhNL7xJVG1u0RUxB9sH.obj
 0002:00001554       $unwind$cgxe_KfaDhNL7xJVG1u0RUxB9sH_fallback_info 000000018001e554     m_KfaDhNL7xJVG1u0RUxB9sH.obj
 0002:0000155c       $unwind$method_dispatcher_nyucgZWjM3Ai1CT2jftVoF 000000018001e55c     m_nyucgZWjM3Ai1CT2jftVoF.obj
 0002:00001564       $unwind$cgxe_mdl_start     000000018001e564     m_nyucgZWjM3Ai1CT2jftVoF.obj
 0002:0000156c       $unwind$cgxe_mdl_initialize 000000018001e56c     m_nyucgZWjM3Ai1CT2jftVoF.obj
 0002:00001574       $unwind$cgxe_mdl_outputs   000000018001e574     m_nyucgZWjM3Ai1CT2jftVoF.obj
 0002:0000157c       $unwind$cgxe_mdl_terminate 000000018001e57c     m_nyucgZWjM3Ai1CT2jftVoF.obj
 0002:00001584       $unwind$mw__internal__call__setup 000000018001e584     m_nyucgZWjM3Ai1CT2jftVoF.obj
 0002:0000158c       $unwind$SystemCore_setup   000000018001e58c     m_nyucgZWjM3Ai1CT2jftVoF.obj
 0002:0000159c       $unwind$mw__internal__call__reset 000000018001e59c     m_nyucgZWjM3Ai1CT2jftVoF.obj
 0002:000015ac       $unwind$mw__internal__call__step 000000018001e5ac     m_nyucgZWjM3Ai1CT2jftVoF.obj
 0002:000015bc       $unwind$emlrt_marshallOut  000000018001e5bc     m_nyucgZWjM3Ai1CT2jftVoF.obj
 0002:000015c4       $unwind$cgxe_mdl_get_sim_state 000000018001e5c4     m_nyucgZWjM3Ai1CT2jftVoF.obj
 0002:000015cc       $unwind$emlrt_marshallIn   000000018001e5cc     m_nyucgZWjM3Ai1CT2jftVoF.obj
 0002:000015d4       $unwind$b_emlrt_marshallIn 000000018001e5d4     m_nyucgZWjM3Ai1CT2jftVoF.obj
 0002:000015dc       $unwind$c_emlrt_marshallIn 000000018001e5dc     m_nyucgZWjM3Ai1CT2jftVoF.obj
 0002:000015e4       $unwind$d_emlrt_marshallIn 000000018001e5e4     m_nyucgZWjM3Ai1CT2jftVoF.obj
 0002:000015ec       $unwind$e_emlrt_marshallIn 000000018001e5ec     m_nyucgZWjM3Ai1CT2jftVoF.obj
 0002:000015f4       $unwind$f_emlrt_marshallIn 000000018001e5f4     m_nyucgZWjM3Ai1CT2jftVoF.obj
 0002:000015fc       $unwind$cgxe_mdl_set_sim_state 000000018001e5fc     m_nyucgZWjM3Ai1CT2jftVoF.obj
 0002:00001604       $unwind$message            000000018001e604     m_nyucgZWjM3Ai1CT2jftVoF.obj
 0002:0000160c       $unwind$getString          000000018001e60c     m_nyucgZWjM3Ai1CT2jftVoF.obj
 0002:00001614       $unwind$error              000000018001e614     m_nyucgZWjM3Ai1CT2jftVoF.obj
 0002:0000161c       $unwind$g_emlrt_marshallIn 000000018001e61c     m_nyucgZWjM3Ai1CT2jftVoF.obj
 0002:00001624       $unwind$h_emlrt_marshallIn 000000018001e624     m_nyucgZWjM3Ai1CT2jftVoF.obj
 0002:0000162c       $unwind$init_simulink_io_address 000000018001e62c     m_nyucgZWjM3Ai1CT2jftVoF.obj
 0002:00001634       $unwind$mdlOutputs_nyucgZWjM3Ai1CT2jftVoF 000000018001e634     m_nyucgZWjM3Ai1CT2jftVoF.obj
 0002:0000163c       $unwind$mdlInitialize_nyucgZWjM3Ai1CT2jftVoF 000000018001e63c     m_nyucgZWjM3Ai1CT2jftVoF.obj
 0002:00001644       $unwind$mdlUpdate_nyucgZWjM3Ai1CT2jftVoF 000000018001e644     m_nyucgZWjM3Ai1CT2jftVoF.obj
 0002:0000164c       $unwind$getSimState_nyucgZWjM3Ai1CT2jftVoF 000000018001e64c     m_nyucgZWjM3Ai1CT2jftVoF.obj
 0002:00001654       $unwind$setSimState_nyucgZWjM3Ai1CT2jftVoF 000000018001e654     m_nyucgZWjM3Ai1CT2jftVoF.obj
 0002:0000165c       $unwind$mdlTerminate_nyucgZWjM3Ai1CT2jftVoF 000000018001e65c     m_nyucgZWjM3Ai1CT2jftVoF.obj
 0002:00001664       $unwind$mdlEnable_nyucgZWjM3Ai1CT2jftVoF 000000018001e664     m_nyucgZWjM3Ai1CT2jftVoF.obj
 0002:0000166c       $unwind$mdlDisable_nyucgZWjM3Ai1CT2jftVoF 000000018001e66c     m_nyucgZWjM3Ai1CT2jftVoF.obj
 0002:00001674       $unwind$mdlStart_nyucgZWjM3Ai1CT2jftVoF 000000018001e674     m_nyucgZWjM3Ai1CT2jftVoF.obj
 0002:0000167c       $unwind$cgxe_nyucgZWjM3Ai1CT2jftVoF_BuildInfoUpdate 000000018001e67c     m_nyucgZWjM3Ai1CT2jftVoF.obj
 0002:00001684       $unwind$cgxe_nyucgZWjM3Ai1CT2jftVoF_fallback_info 000000018001e684     m_nyucgZWjM3Ai1CT2jftVoF.obj
 0002:0000168c       $unwind$method_dispatcher_KDwHGQ2xXp4wmWKPmnDGqC 000000018001e68c     m_KDwHGQ2xXp4wmWKPmnDGqC.obj
 0002:00001694       $unwind$cgxe_mdl_start     000000018001e694     m_KDwHGQ2xXp4wmWKPmnDGqC.obj
 0002:0000169c       $unwind$cgxe_mdl_initialize 000000018001e69c     m_KDwHGQ2xXp4wmWKPmnDGqC.obj
 0002:000016a4       $unwind$cgxe_mdl_outputs   000000018001e6a4     m_KDwHGQ2xXp4wmWKPmnDGqC.obj
 0002:000016ac       $unwind$cgxe_mdl_terminate 000000018001e6ac     m_KDwHGQ2xXp4wmWKPmnDGqC.obj
 0002:000016b4       $unwind$mw__internal__call__setup 000000018001e6b4     m_KDwHGQ2xXp4wmWKPmnDGqC.obj
 0002:000016bc       $unwind$SystemCore_setup   000000018001e6bc     m_KDwHGQ2xXp4wmWKPmnDGqC.obj
 0002:000016cc       $unwind$mw__internal__call__reset 000000018001e6cc     m_KDwHGQ2xXp4wmWKPmnDGqC.obj
 0002:000016dc       $unwind$mw__internal__call__step 000000018001e6dc     m_KDwHGQ2xXp4wmWKPmnDGqC.obj
 0002:000016ec       $unwind$emlrt_marshallOut  000000018001e6ec     m_KDwHGQ2xXp4wmWKPmnDGqC.obj
 0002:000016f4       $unwind$cgxe_mdl_get_sim_state 000000018001e6f4     m_KDwHGQ2xXp4wmWKPmnDGqC.obj
 0002:000016fc       $unwind$emlrt_marshallIn   000000018001e6fc     m_KDwHGQ2xXp4wmWKPmnDGqC.obj
 0002:00001704       $unwind$b_emlrt_marshallIn 000000018001e704     m_KDwHGQ2xXp4wmWKPmnDGqC.obj
 0002:0000170c       $unwind$c_emlrt_marshallIn 000000018001e70c     m_KDwHGQ2xXp4wmWKPmnDGqC.obj
 0002:00001714       $unwind$d_emlrt_marshallIn 000000018001e714     m_KDwHGQ2xXp4wmWKPmnDGqC.obj
 0002:0000171c       $unwind$e_emlrt_marshallIn 000000018001e71c     m_KDwHGQ2xXp4wmWKPmnDGqC.obj
 0002:00001724       $unwind$f_emlrt_marshallIn 000000018001e724     m_KDwHGQ2xXp4wmWKPmnDGqC.obj
 0002:0000172c       $unwind$cgxe_mdl_set_sim_state 000000018001e72c     m_KDwHGQ2xXp4wmWKPmnDGqC.obj
 0002:00001734       $unwind$message            000000018001e734     m_KDwHGQ2xXp4wmWKPmnDGqC.obj
 0002:0000173c       $unwind$getString          000000018001e73c     m_KDwHGQ2xXp4wmWKPmnDGqC.obj
 0002:00001744       $unwind$error              000000018001e744     m_KDwHGQ2xXp4wmWKPmnDGqC.obj
 0002:0000174c       $unwind$g_emlrt_marshallIn 000000018001e74c     m_KDwHGQ2xXp4wmWKPmnDGqC.obj
 0002:00001754       $unwind$h_emlrt_marshallIn 000000018001e754     m_KDwHGQ2xXp4wmWKPmnDGqC.obj
 0002:0000175c       $unwind$init_simulink_io_address 000000018001e75c     m_KDwHGQ2xXp4wmWKPmnDGqC.obj
 0002:00001764       $unwind$mdlOutputs_KDwHGQ2xXp4wmWKPmnDGqC 000000018001e764     m_KDwHGQ2xXp4wmWKPmnDGqC.obj
 0002:0000176c       $unwind$mdlInitialize_KDwHGQ2xXp4wmWKPmnDGqC 000000018001e76c     m_KDwHGQ2xXp4wmWKPmnDGqC.obj
 0002:00001774       $unwind$mdlUpdate_KDwHGQ2xXp4wmWKPmnDGqC 000000018001e774     m_KDwHGQ2xXp4wmWKPmnDGqC.obj
 0002:0000177c       $unwind$getSimState_KDwHGQ2xXp4wmWKPmnDGqC 000000018001e77c     m_KDwHGQ2xXp4wmWKPmnDGqC.obj
 0002:00001784       $unwind$setSimState_KDwHGQ2xXp4wmWKPmnDGqC 000000018001e784     m_KDwHGQ2xXp4wmWKPmnDGqC.obj
 0002:0000178c       $unwind$mdlTerminate_KDwHGQ2xXp4wmWKPmnDGqC 000000018001e78c     m_KDwHGQ2xXp4wmWKPmnDGqC.obj
 0002:00001794       $unwind$mdlEnable_KDwHGQ2xXp4wmWKPmnDGqC 000000018001e794     m_KDwHGQ2xXp4wmWKPmnDGqC.obj
 0002:0000179c       $unwind$mdlDisable_KDwHGQ2xXp4wmWKPmnDGqC 000000018001e79c     m_KDwHGQ2xXp4wmWKPmnDGqC.obj
 0002:000017a4       $unwind$mdlStart_KDwHGQ2xXp4wmWKPmnDGqC 000000018001e7a4     m_KDwHGQ2xXp4wmWKPmnDGqC.obj
 0002:000017ac       $unwind$cgxe_KDwHGQ2xXp4wmWKPmnDGqC_BuildInfoUpdate 000000018001e7ac     m_KDwHGQ2xXp4wmWKPmnDGqC.obj
 0002:000017b4       $unwind$cgxe_KDwHGQ2xXp4wmWKPmnDGqC_fallback_info 000000018001e7b4     m_KDwHGQ2xXp4wmWKPmnDGqC.obj
 0002:000017bc       $unwind$method_dispatcher_N6wSUtJycDbE8bKJByzvlC 000000018001e7bc     m_N6wSUtJycDbE8bKJByzvlC.obj
 0002:000017c4       $unwind$cgxe_mdl_start     000000018001e7c4     m_N6wSUtJycDbE8bKJByzvlC.obj
 0002:000017cc       $unwind$cgxe_mdl_initialize 000000018001e7cc     m_N6wSUtJycDbE8bKJByzvlC.obj
 0002:000017d4       $unwind$cgxe_mdl_outputs   000000018001e7d4     m_N6wSUtJycDbE8bKJByzvlC.obj
 0002:000017dc       $unwind$cgxe_mdl_terminate 000000018001e7dc     m_N6wSUtJycDbE8bKJByzvlC.obj
 0002:000017e4       $unwind$mw__internal__call__setup 000000018001e7e4     m_N6wSUtJycDbE8bKJByzvlC.obj
 0002:000017ec       $unwind$SystemCore_setup   000000018001e7ec     m_N6wSUtJycDbE8bKJByzvlC.obj
 0002:000017fc       $unwind$mw__internal__call__reset 000000018001e7fc     m_N6wSUtJycDbE8bKJByzvlC.obj
 0002:0000180c       $unwind$mw__internal__call__step 000000018001e80c     m_N6wSUtJycDbE8bKJByzvlC.obj
 0002:0000181c       $unwind$emlrt_marshallOut  000000018001e81c     m_N6wSUtJycDbE8bKJByzvlC.obj
 0002:00001824       $unwind$cgxe_mdl_get_sim_state 000000018001e824     m_N6wSUtJycDbE8bKJByzvlC.obj
 0002:0000182c       $unwind$emlrt_marshallIn   000000018001e82c     m_N6wSUtJycDbE8bKJByzvlC.obj
 0002:00001834       $unwind$b_emlrt_marshallIn 000000018001e834     m_N6wSUtJycDbE8bKJByzvlC.obj
 0002:0000183c       $unwind$c_emlrt_marshallIn 000000018001e83c     m_N6wSUtJycDbE8bKJByzvlC.obj
 0002:00001844       $unwind$d_emlrt_marshallIn 000000018001e844     m_N6wSUtJycDbE8bKJByzvlC.obj
 0002:0000184c       $unwind$e_emlrt_marshallIn 000000018001e84c     m_N6wSUtJycDbE8bKJByzvlC.obj
 0002:00001854       $unwind$f_emlrt_marshallIn 000000018001e854     m_N6wSUtJycDbE8bKJByzvlC.obj
 0002:0000185c       $unwind$cgxe_mdl_set_sim_state 000000018001e85c     m_N6wSUtJycDbE8bKJByzvlC.obj
 0002:00001864       $unwind$message            000000018001e864     m_N6wSUtJycDbE8bKJByzvlC.obj
 0002:0000186c       $unwind$getString          000000018001e86c     m_N6wSUtJycDbE8bKJByzvlC.obj
 0002:00001874       $unwind$error              000000018001e874     m_N6wSUtJycDbE8bKJByzvlC.obj
 0002:0000187c       $unwind$g_emlrt_marshallIn 000000018001e87c     m_N6wSUtJycDbE8bKJByzvlC.obj
 0002:00001884       $unwind$h_emlrt_marshallIn 000000018001e884     m_N6wSUtJycDbE8bKJByzvlC.obj
 0002:0000188c       $unwind$init_simulink_io_address 000000018001e88c     m_N6wSUtJycDbE8bKJByzvlC.obj
 0002:00001894       $unwind$mdlOutputs_N6wSUtJycDbE8bKJByzvlC 000000018001e894     m_N6wSUtJycDbE8bKJByzvlC.obj
 0002:0000189c       $unwind$mdlInitialize_N6wSUtJycDbE8bKJByzvlC 000000018001e89c     m_N6wSUtJycDbE8bKJByzvlC.obj
 0002:000018a4       $unwind$mdlUpdate_N6wSUtJycDbE8bKJByzvlC 000000018001e8a4     m_N6wSUtJycDbE8bKJByzvlC.obj
 0002:000018ac       $unwind$getSimState_N6wSUtJycDbE8bKJByzvlC 000000018001e8ac     m_N6wSUtJycDbE8bKJByzvlC.obj
 0002:000018b4       $unwind$setSimState_N6wSUtJycDbE8bKJByzvlC 000000018001e8b4     m_N6wSUtJycDbE8bKJByzvlC.obj
 0002:000018bc       $unwind$mdlTerminate_N6wSUtJycDbE8bKJByzvlC 000000018001e8bc     m_N6wSUtJycDbE8bKJByzvlC.obj
 0002:000018c4       $unwind$mdlEnable_N6wSUtJycDbE8bKJByzvlC 000000018001e8c4     m_N6wSUtJycDbE8bKJByzvlC.obj
 0002:000018cc       $unwind$mdlDisable_N6wSUtJycDbE8bKJByzvlC 000000018001e8cc     m_N6wSUtJycDbE8bKJByzvlC.obj
 0002:000018d4       $unwind$mdlStart_N6wSUtJycDbE8bKJByzvlC 000000018001e8d4     m_N6wSUtJycDbE8bKJByzvlC.obj
 0002:000018dc       $unwind$cgxe_N6wSUtJycDbE8bKJByzvlC_BuildInfoUpdate 000000018001e8dc     m_N6wSUtJycDbE8bKJByzvlC.obj
 0002:000018e4       $unwind$cgxe_N6wSUtJycDbE8bKJByzvlC_fallback_info 000000018001e8e4     m_N6wSUtJycDbE8bKJByzvlC.obj
 0002:000018ec       $unwind$method_dispatcher_rv2q6Si9yo15c6LurhHJ 000000018001e8ec     m_rv2q6Si9yo15c6LurhHJ.obj
 0002:000018f4       $unwind$cgxe_mdl_start     000000018001e8f4     m_rv2q6Si9yo15c6LurhHJ.obj
 0002:000018fc       $unwind$cgxe_mdl_initialize 000000018001e8fc     m_rv2q6Si9yo15c6LurhHJ.obj
 0002:00001904       $unwind$cgxe_mdl_outputs   000000018001e904     m_rv2q6Si9yo15c6LurhHJ.obj
 0002:0000190c       $unwind$cgxe_mdl_terminate 000000018001e90c     m_rv2q6Si9yo15c6LurhHJ.obj
 0002:00001914       $unwind$mw__internal__call__setup 000000018001e914     m_rv2q6Si9yo15c6LurhHJ.obj
 0002:0000191c       $unwind$SystemCore_setup   000000018001e91c     m_rv2q6Si9yo15c6LurhHJ.obj
 0002:0000192c       $unwind$mw__internal__call__reset 000000018001e92c     m_rv2q6Si9yo15c6LurhHJ.obj
 0002:0000193c       $unwind$mw__internal__call__step 000000018001e93c     m_rv2q6Si9yo15c6LurhHJ.obj
 0002:0000194c       $unwind$emlrt_marshallOut  000000018001e94c     m_rv2q6Si9yo15c6LurhHJ.obj
 0002:00001954       $unwind$cgxe_mdl_get_sim_state 000000018001e954     m_rv2q6Si9yo15c6LurhHJ.obj
 0002:0000195c       $unwind$emlrt_marshallIn   000000018001e95c     m_rv2q6Si9yo15c6LurhHJ.obj
 0002:00001964       $unwind$b_emlrt_marshallIn 000000018001e964     m_rv2q6Si9yo15c6LurhHJ.obj
 0002:0000196c       $unwind$c_emlrt_marshallIn 000000018001e96c     m_rv2q6Si9yo15c6LurhHJ.obj
 0002:00001974       $unwind$d_emlrt_marshallIn 000000018001e974     m_rv2q6Si9yo15c6LurhHJ.obj
 0002:0000197c       $unwind$e_emlrt_marshallIn 000000018001e97c     m_rv2q6Si9yo15c6LurhHJ.obj
 0002:00001984       $unwind$f_emlrt_marshallIn 000000018001e984     m_rv2q6Si9yo15c6LurhHJ.obj
 0002:0000198c       $unwind$cgxe_mdl_set_sim_state 000000018001e98c     m_rv2q6Si9yo15c6LurhHJ.obj
 0002:00001994       $unwind$message            000000018001e994     m_rv2q6Si9yo15c6LurhHJ.obj
 0002:0000199c       $unwind$getString          000000018001e99c     m_rv2q6Si9yo15c6LurhHJ.obj
 0002:000019a4       $unwind$error              000000018001e9a4     m_rv2q6Si9yo15c6LurhHJ.obj
 0002:000019ac       $unwind$g_emlrt_marshallIn 000000018001e9ac     m_rv2q6Si9yo15c6LurhHJ.obj
 0002:000019b4       $unwind$h_emlrt_marshallIn 000000018001e9b4     m_rv2q6Si9yo15c6LurhHJ.obj
 0002:000019bc       $unwind$init_simulink_io_address 000000018001e9bc     m_rv2q6Si9yo15c6LurhHJ.obj
 0002:000019c4       $unwind$mdlOutputs_rv2q6Si9yo15c6LurhHJ 000000018001e9c4     m_rv2q6Si9yo15c6LurhHJ.obj
 0002:000019cc       $unwind$mdlInitialize_rv2q6Si9yo15c6LurhHJ 000000018001e9cc     m_rv2q6Si9yo15c6LurhHJ.obj
 0002:000019d4       $unwind$mdlUpdate_rv2q6Si9yo15c6LurhHJ 000000018001e9d4     m_rv2q6Si9yo15c6LurhHJ.obj
 0002:000019dc       $unwind$getSimState_rv2q6Si9yo15c6LurhHJ 000000018001e9dc     m_rv2q6Si9yo15c6LurhHJ.obj
 0002:000019e4       $unwind$setSimState_rv2q6Si9yo15c6LurhHJ 000000018001e9e4     m_rv2q6Si9yo15c6LurhHJ.obj
 0002:000019ec       $unwind$mdlTerminate_rv2q6Si9yo15c6LurhHJ 000000018001e9ec     m_rv2q6Si9yo15c6LurhHJ.obj
 0002:000019f4       $unwind$mdlEnable_rv2q6Si9yo15c6LurhHJ 000000018001e9f4     m_rv2q6Si9yo15c6LurhHJ.obj
 0002:000019fc       $unwind$mdlDisable_rv2q6Si9yo15c6LurhHJ 000000018001e9fc     m_rv2q6Si9yo15c6LurhHJ.obj
 0002:00001a04       $unwind$mdlStart_rv2q6Si9yo15c6LurhHJ 000000018001ea04     m_rv2q6Si9yo15c6LurhHJ.obj
 0002:00001a0c       $unwind$cgxe_rv2q6Si9yo15c6LurhHJ_BuildInfoUpdate 000000018001ea0c     m_rv2q6Si9yo15c6LurhHJ.obj
 0002:00001a14       $unwind$cgxe_rv2q6Si9yo15c6LurhHJ_fallback_info 000000018001ea14     m_rv2q6Si9yo15c6LurhHJ.obj
 0002:00001a1c       $unwind$method_dispatcher_0IWK4xPALvAwGYJfiJSKHC 000000018001ea1c     m_0IWK4xPALvAwGYJfiJSKHC.obj
 0002:00001a24       $unwind$cgxe_mdl_start     000000018001ea24     m_0IWK4xPALvAwGYJfiJSKHC.obj
 0002:00001a2c       $unwind$cgxe_mdl_initialize 000000018001ea2c     m_0IWK4xPALvAwGYJfiJSKHC.obj
 0002:00001a34       $unwind$cgxe_mdl_outputs   000000018001ea34     m_0IWK4xPALvAwGYJfiJSKHC.obj
 0002:00001a3c       $unwind$cgxe_mdl_terminate 000000018001ea3c     m_0IWK4xPALvAwGYJfiJSKHC.obj
 0002:00001a44       $unwind$mw__internal__call__setup 000000018001ea44     m_0IWK4xPALvAwGYJfiJSKHC.obj
 0002:00001a4c       $unwind$SystemCore_setup   000000018001ea4c     m_0IWK4xPALvAwGYJfiJSKHC.obj
 0002:00001a5c       $unwind$mw__internal__call__reset 000000018001ea5c     m_0IWK4xPALvAwGYJfiJSKHC.obj
 0002:00001a6c       $unwind$mw__internal__call__step 000000018001ea6c     m_0IWK4xPALvAwGYJfiJSKHC.obj
 0002:00001a7c       $unwind$emlrt_marshallOut  000000018001ea7c     m_0IWK4xPALvAwGYJfiJSKHC.obj
 0002:00001a84       $unwind$cgxe_mdl_get_sim_state 000000018001ea84     m_0IWK4xPALvAwGYJfiJSKHC.obj
 0002:00001a8c       $unwind$emlrt_marshallIn   000000018001ea8c     m_0IWK4xPALvAwGYJfiJSKHC.obj
 0002:00001a94       $unwind$b_emlrt_marshallIn 000000018001ea94     m_0IWK4xPALvAwGYJfiJSKHC.obj
 0002:00001a9c       $unwind$c_emlrt_marshallIn 000000018001ea9c     m_0IWK4xPALvAwGYJfiJSKHC.obj
 0002:00001aa4       $unwind$d_emlrt_marshallIn 000000018001eaa4     m_0IWK4xPALvAwGYJfiJSKHC.obj
 0002:00001aac       $unwind$e_emlrt_marshallIn 000000018001eaac     m_0IWK4xPALvAwGYJfiJSKHC.obj
 0002:00001ab4       $unwind$f_emlrt_marshallIn 000000018001eab4     m_0IWK4xPALvAwGYJfiJSKHC.obj
 0002:00001abc       $unwind$cgxe_mdl_set_sim_state 000000018001eabc     m_0IWK4xPALvAwGYJfiJSKHC.obj
 0002:00001ac4       $unwind$message            000000018001eac4     m_0IWK4xPALvAwGYJfiJSKHC.obj
 0002:00001acc       $unwind$getString          000000018001eacc     m_0IWK4xPALvAwGYJfiJSKHC.obj
 0002:00001ad4       $unwind$error              000000018001ead4     m_0IWK4xPALvAwGYJfiJSKHC.obj
 0002:00001adc       $unwind$g_emlrt_marshallIn 000000018001eadc     m_0IWK4xPALvAwGYJfiJSKHC.obj
 0002:00001ae4       $unwind$h_emlrt_marshallIn 000000018001eae4     m_0IWK4xPALvAwGYJfiJSKHC.obj
 0002:00001aec       $unwind$init_simulink_io_address 000000018001eaec     m_0IWK4xPALvAwGYJfiJSKHC.obj
 0002:00001af4       $unwind$mdlOutputs_0IWK4xPALvAwGYJfiJSKHC 000000018001eaf4     m_0IWK4xPALvAwGYJfiJSKHC.obj
 0002:00001afc       $unwind$mdlInitialize_0IWK4xPALvAwGYJfiJSKHC 000000018001eafc     m_0IWK4xPALvAwGYJfiJSKHC.obj
 0002:00001b04       $unwind$mdlUpdate_0IWK4xPALvAwGYJfiJSKHC 000000018001eb04     m_0IWK4xPALvAwGYJfiJSKHC.obj
 0002:00001b0c       $unwind$getSimState_0IWK4xPALvAwGYJfiJSKHC 000000018001eb0c     m_0IWK4xPALvAwGYJfiJSKHC.obj
 0002:00001b14       $unwind$setSimState_0IWK4xPALvAwGYJfiJSKHC 000000018001eb14     m_0IWK4xPALvAwGYJfiJSKHC.obj
 0002:00001b1c       $unwind$mdlTerminate_0IWK4xPALvAwGYJfiJSKHC 000000018001eb1c     m_0IWK4xPALvAwGYJfiJSKHC.obj
 0002:00001b24       $unwind$mdlEnable_0IWK4xPALvAwGYJfiJSKHC 000000018001eb24     m_0IWK4xPALvAwGYJfiJSKHC.obj
 0002:00001b2c       $unwind$mdlDisable_0IWK4xPALvAwGYJfiJSKHC 000000018001eb2c     m_0IWK4xPALvAwGYJfiJSKHC.obj
 0002:00001b34       $unwind$mdlStart_0IWK4xPALvAwGYJfiJSKHC 000000018001eb34     m_0IWK4xPALvAwGYJfiJSKHC.obj
 0002:00001b3c       $unwind$cgxe_0IWK4xPALvAwGYJfiJSKHC_BuildInfoUpdate 000000018001eb3c     m_0IWK4xPALvAwGYJfiJSKHC.obj
 0002:00001b44       $unwind$cgxe_0IWK4xPALvAwGYJfiJSKHC_fallback_info 000000018001eb44     m_0IWK4xPALvAwGYJfiJSKHC.obj
 0002:00001b4c       $unwind$_vsnprintf_l       000000018001eb4c     Child_App_cgxe_registry.obj
 0002:00001b54       $unwind$_vsprintf_l        000000018001eb54     Child_App_cgxe_registry.obj
 0002:00001b5c       $unwind$sprintf            000000018001eb5c     Child_App_cgxe_registry.obj
 0002:00001b64       $unwind$mexFunction        000000018001eb64     Child_App_cgxe_registry.obj
 0002:00001b74       $unwind$_ssSetInputPortDirectFeedThroughFcn 000000018001eb74     Child_App_cgxe_registry.obj
 0002:00001b84       $unwind$_ssSetRWorkValueFcn 000000018001eb84     Child_App_cgxe_registry.obj
 0002:00001b8c       $unwind$_ssGetRWorkValueFcn 000000018001eb8c     Child_App_cgxe_registry.obj
 0002:00001b94       $unwind$_ssSetIWorkValueFcn 000000018001eb94     Child_App_cgxe_registry.obj
 0002:00001b9c       $unwind$_ssGetIWorkValueFcn 000000018001eb9c     Child_App_cgxe_registry.obj
 0002:00001ba4       $unwind$_ssSetPWorkValueFcn 000000018001eba4     Child_App_cgxe_registry.obj
 0002:00001bac       $unwind$_ssGetPWorkValueFcn 000000018001ebac     Child_App_cgxe_registry.obj
 0002:00001bb4       $unwind$_ssGetInputPortSignalFcn 000000018001ebb4     Child_App_cgxe_registry.obj
 0002:00001bc4       $unwind$_ssGetInputPortBufferDstPortFcn 000000018001ebc4     Child_App_cgxe_registry.obj
 0002:00001bcc       $unwind$_ssGetInputPortSignalPtrsFcn 000000018001ebcc     Child_App_cgxe_registry.obj
 0002:00001bdc       $unwind$ssGetParameterTuningCompliance 000000018001ebdc     Child_App_cgxe_registry.obj
 0002:00001be4       $unwind$_ssReadInputStringFcn 000000018001ebe4     Child_App_cgxe_registry.obj
 0002:00001bec       $unwind$ssGetDTypeIdFromMxArray 000000018001ebec     Child_App_cgxe_registry.obj
 0002:00001bf4       $unwind$ssWriteRTWMx2dMatParam 000000018001ebf4     Child_App_cgxe_registry.obj
 0002:00001bfc       $unwind$ssWriteRTWMxVectParam 000000018001ebfc     Child_App_cgxe_registry.obj
 0002:00001c04       $unwind$ssWriteRTWParameters 000000018001ec04     Child_App_cgxe_registry.obj
 0002:00001c0c       $unwind$ssWriteRTWParamSettings 000000018001ec0c     Child_App_cgxe_registry.obj
 0002:00001c14       $unwind$ssWriteRTWStr      000000018001ec14     Child_App_cgxe_registry.obj
 0002:00001c1c       $unwind$ssWriteRTWWorkVect 000000018001ec1c     Child_App_cgxe_registry.obj
 0002:00001c30       $unwind$ssWarning          000000018001ec30     Child_App_cgxe_registry.obj
 0002:00001c44       $unwind$ssGetRootSS        000000018001ec44     Child_App_cgxe_registry.obj
 0002:00001c4c       $unwind$ssGetParentSS      000000018001ec4c     Child_App_cgxe_registry.obj
 0002:00001c54       $unwind$ssWriteRTWNameValuePair 000000018001ec54     Child_App_cgxe_registry.obj
 0002:00001c5c       $unwind$_ssSetInputPortMatrixDimensions 000000018001ec5c     Child_App_cgxe_registry.obj
 0002:00001c68       $unwind$_ssSetOutputPortMatrixDimensions 000000018001ec68     Child_App_cgxe_registry.obj
 0002:00001c74       $unwind$_ssSetInputPortVectorDimension 000000018001ec74     Child_App_cgxe_registry.obj
 0002:00001c80       $unwind$_ssSetOutputPortVectorDimension 000000018001ec80     Child_App_cgxe_registry.obj
 0002:00001c8c       $unwind$ssIsRunTimeParamTunable 000000018001ec8c     Child_App_cgxe_registry.obj
 0002:00001c94       $unwind$ssGetSFuncBlockHandle 000000018001ec94     Child_App_cgxe_registry.obj
 0002:00001c9c       $unwind$_ssGetCallSystemNumFcnCallDestinations 000000018001ec9c     Child_App_cgxe_registry.obj
 0002:00001ca4       $unwind$_ssGetCurrentInputPortWidth 000000018001eca4     Child_App_cgxe_registry.obj
 0002:00001cac       $unwind$_ssGetCurrentOutputPortWidth 000000018001ecac     Child_App_cgxe_registry.obj
 0002:00001cb4       $unwind$ssGetIsZeroCrossControlDisabled 000000018001ecb4     Child_App_cgxe_registry.obj
 0002:00001cbc       $unwind$ssSetIsInputPortUsedForContZcSignal 000000018001ecbc     Child_App_cgxe_registry.obj
 0002:00001cc4       $unwind$ssSetZcSignalIsZcElementDisc 000000018001ecc4     Child_App_cgxe_registry.obj
 0002:00001cd4       $unwind$ssSetZcSignalName  000000018001ecd4     Child_App_cgxe_registry.obj
 0002:00001cdc       $unwind$ssSetZcSignalWidth 000000018001ecdc     Child_App_cgxe_registry.obj
 0002:00001ce4       $unwind$ssSetZcSignalZcEventType 000000018001ece4     Child_App_cgxe_registry.obj
 0002:00001cec       $unwind$ssSetZcSignalType  000000018001ecec     Child_App_cgxe_registry.obj
 0002:00001cf4       $unwind$ssSetZcSignalZcTol 000000018001ecf4     Child_App_cgxe_registry.obj
 0002:00001cfc       $unwind$ssSetZcSignalNeedsEventNotification 000000018001ecfc     Child_App_cgxe_registry.obj
 0002:00001d04       $unwind$ssCreateAndAddZcSignalInfo 000000018001ed04     Child_App_cgxe_registry.obj
 0002:00001d0c       $unwind$ssCloneAndAddZcSignalInfo 000000018001ed0c     Child_App_cgxe_registry.obj
 0002:00001d14       $unwind$ssGetNumZcSignals  000000018001ed14     Child_App_cgxe_registry.obj
 0002:00001d1c       $unwind$ssGetZcSignalVector 000000018001ed1c     Child_App_cgxe_registry.obj
 0002:00001d24       $unwind$ssGetZcSignalName  000000018001ed24     Child_App_cgxe_registry.obj
 0002:00001d2c       $unwind$ssGetZcSignalWidth 000000018001ed2c     Child_App_cgxe_registry.obj
 0002:00001d34       $unwind$ssGetZcSignalZcEventType 000000018001ed34     Child_App_cgxe_registry.obj
 0002:00001d3c       $unwind$ssGetZcSignalZcEvents 000000018001ed3c     Child_App_cgxe_registry.obj
 0002:00001d44       $unwind$ssGetZcSignalType  000000018001ed44     Child_App_cgxe_registry.obj
 0002:00001d4c       $unwind$ssGetZcSignalZcTol 000000018001ed4c     Child_App_cgxe_registry.obj
 0002:00001d54       $unwind$ssGetZcSignalNeedsEventNotification 000000018001ed54     Child_App_cgxe_registry.obj
 0002:00001d5c       $unwind$ssGetZcSignalIsZcElementDisc 000000018001ed5c     Child_App_cgxe_registry.obj
 0002:00001d6c       $unwind$ssGetIsInputPortElementContinuous 000000018001ed6c     Child_App_cgxe_registry.obj
 0002:00001d7c       $unwind$_ssGetAbsTol       000000018001ed7c     Child_App_cgxe_registry.obj
 0002:00001d84       $unwind$_ssSetInputPortReusableFcn 000000018001ed84     Child_App_cgxe_registry.obj
 0002:00001d8c       $unwind$_ssSetOutputPortReusableFcn 000000018001ed8c     Child_App_cgxe_registry.obj
 0002:00001d94       $unwind$_ssSetSymbolicDimsSupport 000000018001ed94     Child_App_cgxe_registry.obj
 0002:00001d9c       $unwind$_ssRegisterSymbolicDimsExpr 000000018001ed9c     Child_App_cgxe_registry.obj
 0002:00001da4       $unwind$_ssRegisterSymbolicDimsMATLABExpr 000000018001eda4     Child_App_cgxe_registry.obj
 0002:00001dac       $unwind$_ssRegisterSymbolicDims 000000018001edac     Child_App_cgxe_registry.obj
 0002:00001db4       $unwind$_ssRegisterSymbolicDimsString 000000018001edb4     Child_App_cgxe_registry.obj
 0002:00001dbc       $unwind$_ssRegisterSymbolicDimsIntValue 000000018001edbc     Child_App_cgxe_registry.obj
 0002:00001dc4       $unwind$_ssRegisterSymbolicEqualRelation 000000018001edc4     Child_App_cgxe_registry.obj
 0002:00001dcc       $unwind$_ssRegisterSymbolicEqualValue 000000018001edcc     Child_App_cgxe_registry.obj
 0002:00001dd4       $unwind$_ssAmendLeadingSymbolicDims 000000018001edd4     Child_App_cgxe_registry.obj
 0002:00001ddc       $unwind$_ssAmendTrailingSymbolicDims 000000018001eddc     Child_App_cgxe_registry.obj
 0002:00001de4       $unwind$_ssRegisterSymbolicDimsPlus 000000018001ede4     Child_App_cgxe_registry.obj
 0002:00001dec       $unwind$_ssRegisterSymbolicDimsMinus 000000018001edec     Child_App_cgxe_registry.obj
 0002:00001df4       $unwind$_ssRegisterSymbolicDimsMultiply 000000018001edf4     Child_App_cgxe_registry.obj
 0002:00001dfc       $unwind$_ssRegisterSymbolicDimsDivide 000000018001edfc     Child_App_cgxe_registry.obj
 0002:00001e04       $unwind$_ssGetNumSymbolicDims 000000018001ee04     Child_App_cgxe_registry.obj
 0002:00001e0c       $unwind$_ssGetSymbolicDim  000000018001ee0c     Child_App_cgxe_registry.obj
 0002:00001e14       $unwind$_ssSetInputPortSymbolicDimsId 000000018001ee14     Child_App_cgxe_registry.obj
 0002:00001e1c       $unwind$_ssGetCompInputPortSymbolicDimsId 000000018001ee1c     Child_App_cgxe_registry.obj
 0002:00001e24       $unwind$_ssSetCompInputPortSymbolicDimsId 000000018001ee24     Child_App_cgxe_registry.obj
 0002:00001e2c       $unwind$_ssSetOutputPortSymbolicDimsId 000000018001ee2c     Child_App_cgxe_registry.obj
 0002:00001e34       $unwind$_ssGetCompOutputPortSymbolicDimsId 000000018001ee34     Child_App_cgxe_registry.obj
 0002:00001e3c       $unwind$_ssSetCompOutputPortSymbolicDimsId 000000018001ee3c     Child_App_cgxe_registry.obj
 0002:00001e44       $unwind$_ssGetDWorkSymbolicDimsId 000000018001ee44     Child_App_cgxe_registry.obj
 0002:00001e4c       $unwind$_ssSetDWorkSymbolicDimsId 000000018001ee4c     Child_App_cgxe_registry.obj
 0002:00001e54       $unwind$_ssGetCompDWorkSymbolicDimsId 000000018001ee54     Child_App_cgxe_registry.obj
 0002:00001e5c       $unwind$_ssSetCompDWorkSymbolicDimsId 000000018001ee5c     Child_App_cgxe_registry.obj
 0002:00001e64       $unwind$_ssCreateSLCGStringBuffer 000000018001ee64     Child_App_cgxe_registry.obj
 0002:00001e6c       $unwind$_ssAddToSLCGStringBuffer 000000018001ee6c     Child_App_cgxe_registry.obj
 0002:00001e74       $unwind$_ssGetPointerContainedData 000000018001ee74     Child_App_cgxe_registry.obj
 0002:00001e7c       $unwind$_ssGetPointerContainedDataWidth 000000018001ee7c     Child_App_cgxe_registry.obj
 0002:00001e84       $unwind$_ssRegisterDynamicArrayDataTypeFcn 000000018001ee84     Child_App_cgxe_registry.obj
 0002:00001e8c       $unwind$_ssGetDynamicArrayContainedDataCurrentWidthFcn 000000018001ee8c     Child_App_cgxe_registry.obj
 0002:00001e94       $unwind$_ssGetDynamicArrayContainedDataFcn 000000018001ee94     Child_App_cgxe_registry.obj
 0002:00001e9c       $unwind$_ssGetInputPortDynamicArrayDataFcn 000000018001ee9c     Child_App_cgxe_registry.obj
 0002:00001ea4       $unwind$_ssGetOutputPortDynamicArrayDataFcn 000000018001eea4     Child_App_cgxe_registry.obj
 0002:00001eac       $unwind$_ssGetInputPortDynamicArrayContainedDataFcn 000000018001eeac     Child_App_cgxe_registry.obj
 0002:00001eb4       $unwind$_ssGetOutputPortDynamicArrayContainedDataFcn 000000018001eeb4     Child_App_cgxe_registry.obj
 0002:00001ebc       $unwind$_ssGetDynamicArrayDWorkContainedDataFcn 000000018001eebc     Child_App_cgxe_registry.obj
 0002:00001ec4       $unwind$mdlStart           000000018001eec4     Child_App_cgxe_registry.obj
 0002:00001ecc       $unwind$mdlInitializeConditions 000000018001eecc     Child_App_cgxe_registry.obj
 0002:00001ed4       $unwind$mdlUpdate          000000018001eed4     Child_App_cgxe_registry.obj
 0002:00001edc       $unwind$mdlOutputs         000000018001eedc     Child_App_cgxe_registry.obj
 0002:00001ee4       $unwind$mdlTerminate       000000018001eee4     Child_App_cgxe_registry.obj
 0002:00001eec       $unwind$cgxe_get_supported_modules 000000018001eeec     Child_App_cgxe_registry.obj
 0002:00001ef4       $unwind$cgxe_process_get_checksums 000000018001eef4     Child_App_cgxe_registry.obj
 0002:00001f04       $unwind$cgxe_mex_unlock_call 000000018001ef04     Child_App_cgxe_registry.obj
 0002:00001f0c       $unwind$cgxe_unpack_simstruct 000000018001ef0c     Child_App_cgxe_registry.obj
 0002:00001f14       $unwind$cgxe_get_sim_state 000000018001ef14     Child_App_cgxe_registry.obj
 0002:00001f1c       $unwind$cgxe_set_sim_state 000000018001ef1c     Child_App_cgxe_registry.obj
 0002:00001f24       $unwind$cgxe_get_BuildInfoUpdate 000000018001ef24     Child_App_cgxe_registry.obj
 0002:00001f34       $unwind$cgxe_get_fallback_info 000000018001ef34     Child_App_cgxe_registry.obj
 0002:00001f44       $unwind$ProcessMexSfunctionCmdLineCall 000000018001ef44     Child_App_cgxe_registry.obj
 0002:00001f54       $unwind$_RegNumInputPortsCB 000000018001ef54     Child_App_cgxe_registry.obj
 0002:00001f5c       $unwind$_RegNumOutputPortsCB 000000018001ef5c     Child_App_cgxe_registry.obj
 0002:00001f64       $unwind$_CreateSimStruct   000000018001ef64     Child_App_cgxe_registry.obj
 0002:00001f6c       $unwind$_ProcessMexSfunctionCmdLineCall 000000018001ef6c     Child_App_cgxe_registry.obj
 0002:00001f7c       $unwind$ReportIndexOutOfBoundsError 000000018001ef7c     Child_App_cgxe_registry.obj
 0002:00001f8c       $unwind$__GSHandlerCheckCommon 000000018001ef8c     MSVCRT:gshandler.obj
 0002:00001f94       $unwind$__GSHandlerCheck   000000018001ef94     MSVCRT:gshandler.obj
 0002:00001fa0       $xdatasym                  000000018001efa0     MSVCRT:amdsecgs.obj
 0002:00001fa4       $unwind$__report_securityfailure 000000018001efa4     MSVCRT:gs_report.obj
 0002:00001fac       $unwind$__report_securityfailureEx 000000018001efac     MSVCRT:gs_report.obj
 0002:00001fb4       $unwind$__report_rangecheckfailure 000000018001efb4     MSVCRT:gs_report.obj
 0002:00001fbc       $unwind$__report_gsfailure 000000018001efbc     MSVCRT:gs_report.obj
 0002:00001fc4       $unwind$capture_current_context 000000018001efc4     MSVCRT:gs_report.obj
 0002:00001fd0       $unwind$capture_previous_context 000000018001efd0     MSVCRT:gs_report.obj
 0002:00001fdc       $unwind$__raise_securityfailure 000000018001efdc     MSVCRT:gs_report.obj
 0002:00001fe4       $unwind$?dllmain_crt_process_attach@@YAHQEAUHINSTANCE__@@QEAX@Z 000000018001efe4     MSVCRT:dll_dllmain.obj
 0002:00002020       $unwind$?fin$0@?0??dllmain_crt_process_attach@@YAHQEAUHINSTANCE__@@QEAX@Z@4HA 000000018001f020     MSVCRT:dll_dllmain.obj
 0002:00002028       $unwind$?dllmain_crt_process_detach@@YAH_N@Z 000000018001f028     MSVCRT:dll_dllmain.obj
 0002:0000207c       $unwind$?fin$0@?0??dllmain_crt_process_detach@@YAH_N@Z@4HA 000000018001f07c     MSVCRT:dll_dllmain.obj
 0002:00002084       $unwind$?fin$1@?0??dllmain_crt_process_detach@@YAH_N@Z@4HA 000000018001f084     MSVCRT:dll_dllmain.obj
 0002:0000208c       $unwind$?dllmain_crt_dispatch@@YAHQEAUHINSTANCE__@@KQEAX@Z 000000018001f08c     MSVCRT:dll_dllmain.obj
 0002:00002094       $unwind$?dllmain_dispatch@@YAHQEAUHINSTANCE__@@KQEAX@Z 000000018001f094     MSVCRT:dll_dllmain.obj
 0002:000020bc       $unwind$?filt$0@?0??dllmain_dispatch@@YAHQEAUHINSTANCE__@@KQEAX@Z@4HA 000000018001f0bc     MSVCRT:dll_dllmain.obj
 0002:000020c4       $unwind$_DllMainCRTStartup 000000018001f0c4     MSVCRT:dll_dllmain.obj
 0002:000020d4       $unwind$__security_init_cookie 000000018001f0d4     MSVCRT:gs_support.obj
 0002:000020e0       $unwind$__get_entropy      000000018001f0e0     MSVCRT:gs_support.obj
 0002:000020e8       $unwind$DllMain            000000018001f0e8     MSVCRT:dll_dllmain_stub.obj
 0002:000020f0       $unwind$__scrt_initialize_default_local_stdio_options 000000018001f0f0     MSVCRT:default_local_stdio_options.obj
 0002:000020f8       $unwind$atexit             000000018001f0f8     MSVCRT:utility.obj
 0002:00002100       $unwind$_onexit            000000018001f100     MSVCRT:utility.obj
 0002:00002108       $unwind$__scrt_is_nonwritable_in_current_image 000000018001f108     MSVCRT:utility.obj
 0002:00002128       $unwind$__scrt_is_nonwritable_in_current_image$filt$0 000000018001f128     MSVCRT:utility.obj
 0002:00002130       $unwind$__scrt_acquire_startup_lock 000000018001f130     MSVCRT:utility.obj
 0002:00002138       $unwind$__scrt_release_startup_lock 000000018001f138     MSVCRT:utility.obj
 0002:00002140       $unwind$__scrt_initialize_crt 000000018001f140     MSVCRT:utility.obj
 0002:00002148       $unwind$__scrt_uninitialize_crt 000000018001f148     MSVCRT:utility.obj
 0002:00002150       $unwind$__scrt_initialize_onexit_tables 000000018001f150     MSVCRT:utility.obj
 0002:00002158       $unwind$__scrt_dllmain_exception_filter 000000018001f158     MSVCRT:utility.obj
 0002:0000216c       $unwind$__scrt_dllmain_before_initialize_c 000000018001f16c     MSVCRT:utility.obj
 0002:00002174       $unwind$__scrt_dllmain_after_initialize_c 000000018001f174     MSVCRT:utility.obj
 0002:0000217c       $unwind$__scrt_dllmain_uninitialize_c 000000018001f17c     MSVCRT:utility.obj
 0002:00002184       $unwind$__scrt_dllmain_uninitialize_critical 000000018001f184     MSVCRT:utility.obj
 0002:0000218c       $unwind$__scrt_dllmain_crt_thread_attach 000000018001f18c     MSVCRT:utility.obj
 0002:00002194       $unwind$__scrt_dllmain_crt_thread_detach 000000018001f194     MSVCRT:utility.obj
 0002:0000219c       $unwind$?configure_argv@__scrt_narrow_argv_policy@@SAHXZ 000000018001f19c     MSVCRT:utility.obj
 0002:000021a4       $unwind$__scrt_get_show_window_mode 000000018001f1a4     MSVCRT:utility_desktop.obj
 0002:000021ac       $unwind$__scrt_is_managed_app 000000018001f1ac     MSVCRT:utility_desktop.obj
 0002:000021b4       $unwind$__scrt_fastfail    000000018001f1b4     MSVCRT:utility_desktop.obj
 0002:000021c4       $unwind$__scrt_unhandled_exception_filter 000000018001f1c4     MSVCRT:utility_desktop.obj
 0002:000021d0       $unwind$_RTC_Initialize    000000018001f1d0     MSVCRT:initsect.obj
 0002:000021dc       $unwind$_RTC_Terminate     000000018001f1dc     MSVCRT:initsect.obj
 0002:000021e8       $unwind$__castguard_check_failure_os_handled_wrapper 000000018001f1e8     MSVCRT:guard_support.obj
 0002:000021f0       $unwind$__castguard_check_failure_user_handled_wrapper 000000018001f1f0     MSVCRT:guard_support.obj
 0002:000021f8       $unwind$__castguard_check_failure_os_handled 000000018001f1f8     MSVCRT:guard_support.obj
 0002:00002200       $unwind$__castguard_check_failure_user_handled 000000018001f200     MSVCRT:guard_support.obj
 0002:00002208       $unwind$__castguard_slow_path_check_os_handled 000000018001f208     MSVCRT:guard_support.obj
 0002:00002210       $unwind$__castguard_slow_path_check_user_handled 000000018001f210     MSVCRT:guard_support.obj
 0002:00002218       $unwind$__isa_available_init 000000018001f218     MSVCRT:cpu_disp.obj
 0002:00002228       $xdatasym                  000000018001f228     MSVCRT:guard_dispatch.obj
 0002:00002230       $xdatasym                  000000018001f230     MSVCRT:guard_xfg_dispatch.obj
 0002:00002240       .edata                     000000018001f240     Child_App_cgxe.exp
 0002:00002268       rgpv                       000000018001f268     Child_App_cgxe.exp
 0002:00002270       rgszName                   000000018001f270     Child_App_cgxe.exp
 0002:00002278       rgwOrd                     000000018001f278     Child_App_cgxe.exp
 0002:0000227c       szName                     000000018001f27c     Child_App_cgxe.exp
 0002:00002292       $N00001                    000000018001f292     Child_App_cgxe.exp
 0002:0000229e       $N00002                    000000018001f29e     Child_App_cgxe.exp
 0002:00002838       .idata$6                   000000018001f838     libmx:libmx.dll
 0002:0000289c       .idata$6                   000000018001f89c     libmex:libmex.dll
 0002:00002a36       .idata$6                   000000018001fa36     libemlrt:libemlrt.dll
 0002:00002aec       .idata$6                   000000018001faec     libmwcgxert:libmwcgxert.dll
 0002:00002c88       .idata$6                   000000018001fc88     kernel32:KERNEL32.dll
 0002:00002d16       .idata$6                   000000018001fd16     vcruntime:VCRUNTIME140.dll
 0002:00002e64       .idata$6                   000000018001fe64     ucrt:api-ms-win-crt-heap-l1-1-0.dll
 0002:00002e84       .idata$6                   000000018001fe84     ucrt:api-ms-win-crt-string-l1-1-0.dll
 0002:00002ea6       .idata$6                   000000018001fea6     ucrt:api-ms-win-crt-stdio-l1-1-0.dll
 0002:00002ec6       .idata$6                   000000018001fec6     ucrt:api-ms-win-crt-runtime-l1-1-0.dll
 0003:00000000       $SG21900                   0000000180020000     m_r9npojpcpE1nIt6wcZfq3F.obj
 0003:00000020       $SG21901                   0000000180020020     m_r9npojpcpE1nIt6wcZfq3F.obj
 0003:000000a0       $SG21903                   00000001800200a0     m_r9npojpcpE1nIt6wcZfq3F.obj
 0003:000000b0       $SG21904                   00000001800200b0     m_r9npojpcpE1nIt6wcZfq3F.obj
 0003:00000110       $SG21906                   0000000180020110     m_r9npojpcpE1nIt6wcZfq3F.obj
 0003:00000120       $SG21907                   0000000180020120     m_r9npojpcpE1nIt6wcZfq3F.obj
 0003:00000180       $SG21909                   0000000180020180     m_r9npojpcpE1nIt6wcZfq3F.obj
 0003:00000190       $SG21910                   0000000180020190     m_r9npojpcpE1nIt6wcZfq3F.obj
 0003:000001f0       $SG21924                   00000001800201f0     m_r9npojpcpE1nIt6wcZfq3F.obj
 0003:00000200       $SG21925                   0000000180020200     m_r9npojpcpE1nIt6wcZfq3F.obj
 0003:00000260       $SG22246                   0000000180020260     m_r9npojpcpE1nIt6wcZfq3F.obj
 0003:00000270       $SG22296                   0000000180020270     m_r9npojpcpE1nIt6wcZfq3F.obj
 0003:00000280       emlrtRSI                   0000000180020280     m_r9npojpcpE1nIt6wcZfq3F.obj
 0003:00000298       b_emlrtRSI                 0000000180020298     m_r9npojpcpE1nIt6wcZfq3F.obj
 0003:000002b0       c_emlrtRSI                 00000001800202b0     m_r9npojpcpE1nIt6wcZfq3F.obj
 0003:000002c8       d_emlrtRSI                 00000001800202c8     m_r9npojpcpE1nIt6wcZfq3F.obj
 0003:000002e0       e_emlrtRSI                 00000001800202e0     m_r9npojpcpE1nIt6wcZfq3F.obj
 0003:000002f8       f_emlrtRSI                 00000001800202f8     m_r9npojpcpE1nIt6wcZfq3F.obj
 0003:00000310       g_emlrtRSI                 0000000180020310     m_r9npojpcpE1nIt6wcZfq3F.obj
 0003:00000328       h_emlrtRSI                 0000000180020328     m_r9npojpcpE1nIt6wcZfq3F.obj
 0003:00000340       emlrtMCI                   0000000180020340     m_r9npojpcpE1nIt6wcZfq3F.obj
 0003:00000358       ?b_u@?1??SystemCore_setup@@9@9 0000000180020358     m_r9npojpcpE1nIt6wcZfq3F.obj
 0003:0000038c       ?d_u@?1??SystemCore_setup@@9@9 000000018002038c     m_r9npojpcpE1nIt6wcZfq3F.obj
 0003:00000394       ?d_u@?1??mw__internal__call__step@@9@9 0000000180020394     m_r9npojpcpE1nIt6wcZfq3F.obj
 0003:00000398       ?b_u@?1??mw__internal__call__reset@@9@9 0000000180020398     m_r9npojpcpE1nIt6wcZfq3F.obj
 0003:000003c8       ?d_u@?1??mw__internal__call__reset@@9@9 00000001800203c8     m_r9npojpcpE1nIt6wcZfq3F.obj
 0003:000003d0       ?b_u@?1??mw__internal__call__step@@9@9 00000001800203d0     m_r9npojpcpE1nIt6wcZfq3F.obj
 0003:00000400       ?sv@?1??emlrt_marshallOut@@9@9 0000000180020400     m_r9npojpcpE1nIt6wcZfq3F.obj
 0003:00000408       $SG22247                   0000000180020408     m_r9npojpcpE1nIt6wcZfq3F.obj
 0003:00000418       $SG22264                   0000000180020418     m_r9npojpcpE1nIt6wcZfq3F.obj
 0003:00000420       $SG22265                   0000000180020420     m_r9npojpcpE1nIt6wcZfq3F.obj
 0003:00000428       $SG22266                   0000000180020428     m_r9npojpcpE1nIt6wcZfq3F.obj
 0003:0000043c       $SG22371                   000000018002043c     m_r9npojpcpE1nIt6wcZfq3F.obj
 0003:00000448       $SG22267                   0000000180020448     m_r9npojpcpE1nIt6wcZfq3F.obj
 0003:0000045c       $SG22385                   000000018002045c     m_r9npojpcpE1nIt6wcZfq3F.obj
 0003:00000468       ?fieldNames@?1??c_emlrt_marshallIn@@9@9 0000000180020468     m_r9npojpcpE1nIt6wcZfq3F.obj
 0003:00000470       $SG22297                   0000000180020470     m_r9npojpcpE1nIt6wcZfq3F.obj
 0003:00000480       $SG22298                   0000000180020480     m_r9npojpcpE1nIt6wcZfq3F.obj
 0003:00000490       $SG22347                   0000000180020490     m_r9npojpcpE1nIt6wcZfq3F.obj
 0003:00000498       $SG22358                   0000000180020498     m_r9npojpcpE1nIt6wcZfq3F.obj
 0003:000004a8       $SG22398                   00000001800204a8     m_r9npojpcpE1nIt6wcZfq3F.obj
 0003:000004b0       $SG22504                   00000001800204b0     m_r9npojpcpE1nIt6wcZfq3F.obj
 0003:000004d8       $SG22513                   00000001800204d8     m_r9npojpcpE1nIt6wcZfq3F.obj
 0003:000004e8       $SG22515                   00000001800204e8     m_r9npojpcpE1nIt6wcZfq3F.obj
 0003:00000500       $SG22516                   0000000180020500     m_r9npojpcpE1nIt6wcZfq3F.obj
 0003:00000510       $SG22517                   0000000180020510     m_r9npojpcpE1nIt6wcZfq3F.obj
 0003:00000540       $SG21892                   0000000180020540     m_DH3jGOJ4u96z2aK3hkI3OE.obj
 0003:00000554       $SG21898                   0000000180020554     m_DH3jGOJ4u96z2aK3hkI3OE.obj
 0003:00000560       $SG21893                   0000000180020560     m_DH3jGOJ4u96z2aK3hkI3OE.obj
 0003:000005e8       $SG21895                   00000001800205e8     m_DH3jGOJ4u96z2aK3hkI3OE.obj
 0003:00000600       $SG21896                   0000000180020600     m_DH3jGOJ4u96z2aK3hkI3OE.obj
 0003:00000680       $SG21899                   0000000180020680     m_DH3jGOJ4u96z2aK3hkI3OE.obj
 0003:000006e0       $SG21901                   00000001800206e0     m_DH3jGOJ4u96z2aK3hkI3OE.obj
 0003:000006f0       $SG21902                   00000001800206f0     m_DH3jGOJ4u96z2aK3hkI3OE.obj
 0003:00000750       $SG21904                   0000000180020750     m_DH3jGOJ4u96z2aK3hkI3OE.obj
 0003:00000760       $SG21905                   0000000180020760     m_DH3jGOJ4u96z2aK3hkI3OE.obj
 0003:000007c0       $SG21922                   00000001800207c0     m_DH3jGOJ4u96z2aK3hkI3OE.obj
 0003:000007e0       $SG21923                   00000001800207e0     m_DH3jGOJ4u96z2aK3hkI3OE.obj
 0003:00000838       $SG21925                   0000000180020838     m_DH3jGOJ4u96z2aK3hkI3OE.obj
 0003:00000850       $SG21926                   0000000180020850     m_DH3jGOJ4u96z2aK3hkI3OE.obj
 0003:000008b0       $SG22281                   00000001800208b0     m_DH3jGOJ4u96z2aK3hkI3OE.obj
 0003:000008c8       $SG22282                   00000001800208c8     m_DH3jGOJ4u96z2aK3hkI3OE.obj
 0003:000008d8       $SG22283                   00000001800208d8     m_DH3jGOJ4u96z2aK3hkI3OE.obj
 0003:000008e8       $SG22337                   00000001800208e8     m_DH3jGOJ4u96z2aK3hkI3OE.obj
 0003:00000900       $SG22338                   0000000180020900     m_DH3jGOJ4u96z2aK3hkI3OE.obj
 0003:00000910       $SG22339                   0000000180020910     m_DH3jGOJ4u96z2aK3hkI3OE.obj
 0003:00000920       emlrtRSI                   0000000180020920     m_DH3jGOJ4u96z2aK3hkI3OE.obj
 0003:00000938       b_emlrtRSI                 0000000180020938     m_DH3jGOJ4u96z2aK3hkI3OE.obj
 0003:00000950       c_emlrtRSI                 0000000180020950     m_DH3jGOJ4u96z2aK3hkI3OE.obj
 0003:00000968       d_emlrtRSI                 0000000180020968     m_DH3jGOJ4u96z2aK3hkI3OE.obj
 0003:00000980       e_emlrtRSI                 0000000180020980     m_DH3jGOJ4u96z2aK3hkI3OE.obj
 0003:00000998       f_emlrtRSI                 0000000180020998     m_DH3jGOJ4u96z2aK3hkI3OE.obj
 0003:000009b0       g_emlrtRSI                 00000001800209b0     m_DH3jGOJ4u96z2aK3hkI3OE.obj
 0003:000009c8       h_emlrtRSI                 00000001800209c8     m_DH3jGOJ4u96z2aK3hkI3OE.obj
 0003:000009e0       i_emlrtRSI                 00000001800209e0     m_DH3jGOJ4u96z2aK3hkI3OE.obj
 0003:000009f8       k_emlrtRSI                 00000001800209f8     m_DH3jGOJ4u96z2aK3hkI3OE.obj
 0003:00000a10       emlrtMCI                   0000000180020a10     m_DH3jGOJ4u96z2aK3hkI3OE.obj
 0003:00000a28       ?b_u@?1??SystemCore_setup@@9@9 0000000180020a28     m_DH3jGOJ4u96z2aK3hkI3OE.obj
 0003:00000a5c       ?d_u@?1??SystemCore_setup@@9@9 0000000180020a5c     m_DH3jGOJ4u96z2aK3hkI3OE.obj
 0003:00000a64       ?d_u@?1??mw__internal__call__step@@9@9 0000000180020a64     m_DH3jGOJ4u96z2aK3hkI3OE.obj
 0003:00000a68       ?b_u@?1??mw__internal__call__reset@@9@9 0000000180020a68     m_DH3jGOJ4u96z2aK3hkI3OE.obj
 0003:00000a98       ?d_u@?1??mw__internal__call__reset@@9@9 0000000180020a98     m_DH3jGOJ4u96z2aK3hkI3OE.obj
 0003:00000aa0       ?b_u@?1??mw__internal__call__step@@9@9 0000000180020aa0     m_DH3jGOJ4u96z2aK3hkI3OE.obj
 0003:00000ad0       ?sv@?1??emlrt_marshallOut@@9@9 0000000180020ad0     m_DH3jGOJ4u96z2aK3hkI3OE.obj
 0003:00000ae8       $SG22284                   0000000180020ae8     m_DH3jGOJ4u96z2aK3hkI3OE.obj
 0003:00000b00       $SG22285                   0000000180020b00     m_DH3jGOJ4u96z2aK3hkI3OE.obj
 0003:00000b10       $SG22286                   0000000180020b10     m_DH3jGOJ4u96z2aK3hkI3OE.obj
 0003:00000b20       $SG22303                   0000000180020b20     m_DH3jGOJ4u96z2aK3hkI3OE.obj
 0003:00000b28       $SG22304                   0000000180020b28     m_DH3jGOJ4u96z2aK3hkI3OE.obj
 0003:00000b30       $SG22305                   0000000180020b30     m_DH3jGOJ4u96z2aK3hkI3OE.obj
 0003:00000b44       $SG22418                   0000000180020b44     m_DH3jGOJ4u96z2aK3hkI3OE.obj
 0003:00000b50       $SG22306                   0000000180020b50     m_DH3jGOJ4u96z2aK3hkI3OE.obj
 0003:00000b64       $SG22445                   0000000180020b64     m_DH3jGOJ4u96z2aK3hkI3OE.obj
 0003:00000b70       ?fieldNames@?1??c_emlrt_marshallIn@@9@9 0000000180020b70     m_DH3jGOJ4u96z2aK3hkI3OE.obj
 0003:00000b88       $SG22340                   0000000180020b88     m_DH3jGOJ4u96z2aK3hkI3OE.obj
 0003:00000ba0       $SG22341                   0000000180020ba0     m_DH3jGOJ4u96z2aK3hkI3OE.obj
 0003:00000bb8       $SG22342                   0000000180020bb8     m_DH3jGOJ4u96z2aK3hkI3OE.obj
 0003:00000bc8       $SG22343                   0000000180020bc8     m_DH3jGOJ4u96z2aK3hkI3OE.obj
 0003:00000bd8       $SG22344                   0000000180020bd8     m_DH3jGOJ4u96z2aK3hkI3OE.obj
 0003:00000be8       $SG22345                   0000000180020be8     m_DH3jGOJ4u96z2aK3hkI3OE.obj
 0003:00000bf8       $SG22394                   0000000180020bf8     m_DH3jGOJ4u96z2aK3hkI3OE.obj
 0003:00000c00       $SG22405                   0000000180020c00     m_DH3jGOJ4u96z2aK3hkI3OE.obj
 0003:00000c10       $SG22431                   0000000180020c10     m_DH3jGOJ4u96z2aK3hkI3OE.obj
 0003:00000c18       $SG22551                   0000000180020c18     m_DH3jGOJ4u96z2aK3hkI3OE.obj
 0003:00000c48       $SG22560                   0000000180020c48     m_DH3jGOJ4u96z2aK3hkI3OE.obj
 0003:00000c58       $SG22562                   0000000180020c58     m_DH3jGOJ4u96z2aK3hkI3OE.obj
 0003:00000c70       $SG22563                   0000000180020c70     m_DH3jGOJ4u96z2aK3hkI3OE.obj
 0003:00000c80       $SG22564                   0000000180020c80     m_DH3jGOJ4u96z2aK3hkI3OE.obj
 0003:00000cb0       $SG21894                   0000000180020cb0     m_zBcJJKdPFoobubnOzm2A4C.obj
 0003:00000cd0       $SG21895                   0000000180020cd0     m_zBcJJKdPFoobubnOzm2A4C.obj
 0003:00000d50       $SG21897                   0000000180020d50     m_zBcJJKdPFoobubnOzm2A4C.obj
 0003:00000d60       $SG21898                   0000000180020d60     m_zBcJJKdPFoobubnOzm2A4C.obj
 0003:00000dc0       $SG21900                   0000000180020dc0     m_zBcJJKdPFoobubnOzm2A4C.obj
 0003:00000dd0       $SG21901                   0000000180020dd0     m_zBcJJKdPFoobubnOzm2A4C.obj
 0003:00000e30       $SG21903                   0000000180020e30     m_zBcJJKdPFoobubnOzm2A4C.obj
 0003:00000e40       $SG21904                   0000000180020e40     m_zBcJJKdPFoobubnOzm2A4C.obj
 0003:00000ea0       $SG21918                   0000000180020ea0     m_zBcJJKdPFoobubnOzm2A4C.obj
 0003:00000eb0       $SG21919                   0000000180020eb0     m_zBcJJKdPFoobubnOzm2A4C.obj
 0003:00000f10       $SG22240                   0000000180020f10     m_zBcJJKdPFoobubnOzm2A4C.obj
 0003:00000f20       $SG22290                   0000000180020f20     m_zBcJJKdPFoobubnOzm2A4C.obj
 0003:00000f30       emlrtRSI                   0000000180020f30     m_zBcJJKdPFoobubnOzm2A4C.obj
 0003:00000f48       b_emlrtRSI                 0000000180020f48     m_zBcJJKdPFoobubnOzm2A4C.obj
 0003:00000f60       c_emlrtRSI                 0000000180020f60     m_zBcJJKdPFoobubnOzm2A4C.obj
 0003:00000f78       d_emlrtRSI                 0000000180020f78     m_zBcJJKdPFoobubnOzm2A4C.obj
 0003:00000f90       e_emlrtRSI                 0000000180020f90     m_zBcJJKdPFoobubnOzm2A4C.obj
 0003:00000fa8       f_emlrtRSI                 0000000180020fa8     m_zBcJJKdPFoobubnOzm2A4C.obj
 0003:00000fc0       g_emlrtRSI                 0000000180020fc0     m_zBcJJKdPFoobubnOzm2A4C.obj
 0003:00000fd8       h_emlrtRSI                 0000000180020fd8     m_zBcJJKdPFoobubnOzm2A4C.obj
 0003:00000ff0       emlrtMCI                   0000000180020ff0     m_zBcJJKdPFoobubnOzm2A4C.obj
 0003:00001008       ?b_u@?1??SystemCore_setup@@9@9 0000000180021008     m_zBcJJKdPFoobubnOzm2A4C.obj
 0003:0000103c       ?d_u@?1??SystemCore_setup@@9@9 000000018002103c     m_zBcJJKdPFoobubnOzm2A4C.obj
 0003:00001044       ?d_u@?1??mw__internal__call__step@@9@9 0000000180021044     m_zBcJJKdPFoobubnOzm2A4C.obj
 0003:00001048       ?b_u@?1??mw__internal__call__reset@@9@9 0000000180021048     m_zBcJJKdPFoobubnOzm2A4C.obj
 0003:00001078       ?d_u@?1??mw__internal__call__reset@@9@9 0000000180021078     m_zBcJJKdPFoobubnOzm2A4C.obj
 0003:00001080       ?b_u@?1??mw__internal__call__step@@9@9 0000000180021080     m_zBcJJKdPFoobubnOzm2A4C.obj
 0003:000010b0       ?sv@?1??emlrt_marshallOut@@9@9 00000001800210b0     m_zBcJJKdPFoobubnOzm2A4C.obj
 0003:000010b8       $SG22241                   00000001800210b8     m_zBcJJKdPFoobubnOzm2A4C.obj
 0003:000010c8       $SG22258                   00000001800210c8     m_zBcJJKdPFoobubnOzm2A4C.obj
 0003:000010d0       $SG22259                   00000001800210d0     m_zBcJJKdPFoobubnOzm2A4C.obj
 0003:000010d8       $SG22260                   00000001800210d8     m_zBcJJKdPFoobubnOzm2A4C.obj
 0003:000010ec       $SG22365                   00000001800210ec     m_zBcJJKdPFoobubnOzm2A4C.obj
 0003:000010f8       $SG22261                   00000001800210f8     m_zBcJJKdPFoobubnOzm2A4C.obj
 0003:0000110c       $SG22379                   000000018002110c     m_zBcJJKdPFoobubnOzm2A4C.obj
 0003:00001118       ?fieldNames@?1??c_emlrt_marshallIn@@9@9 0000000180021118     m_zBcJJKdPFoobubnOzm2A4C.obj
 0003:00001120       $SG22291                   0000000180021120     m_zBcJJKdPFoobubnOzm2A4C.obj
 0003:00001130       $SG22292                   0000000180021130     m_zBcJJKdPFoobubnOzm2A4C.obj
 0003:00001140       $SG22341                   0000000180021140     m_zBcJJKdPFoobubnOzm2A4C.obj
 0003:00001148       $SG22352                   0000000180021148     m_zBcJJKdPFoobubnOzm2A4C.obj
 0003:00001158       $SG22392                   0000000180021158     m_zBcJJKdPFoobubnOzm2A4C.obj
 0003:00001160       $SG22498                   0000000180021160     m_zBcJJKdPFoobubnOzm2A4C.obj
 0003:00001188       $SG22507                   0000000180021188     m_zBcJJKdPFoobubnOzm2A4C.obj
 0003:00001198       $SG22509                   0000000180021198     m_zBcJJKdPFoobubnOzm2A4C.obj
 0003:000011b0       $SG22510                   00000001800211b0     m_zBcJJKdPFoobubnOzm2A4C.obj
 0003:000011c0       $SG22511                   00000001800211c0     m_zBcJJKdPFoobubnOzm2A4C.obj
 0003:000011f0       $SG21900                   00000001800211f0     m_E5eYYMYEC9250ATstCUIJE.obj
 0003:00001210       $SG21901                   0000000180021210     m_E5eYYMYEC9250ATstCUIJE.obj
 0003:00001290       $SG21903                   0000000180021290     m_E5eYYMYEC9250ATstCUIJE.obj
 0003:000012a0       $SG21904                   00000001800212a0     m_E5eYYMYEC9250ATstCUIJE.obj
 0003:00001300       $SG21906                   0000000180021300     m_E5eYYMYEC9250ATstCUIJE.obj
 0003:00001310       $SG21907                   0000000180021310     m_E5eYYMYEC9250ATstCUIJE.obj
 0003:00001370       $SG21909                   0000000180021370     m_E5eYYMYEC9250ATstCUIJE.obj
 0003:00001380       $SG21910                   0000000180021380     m_E5eYYMYEC9250ATstCUIJE.obj
 0003:000013e0       $SG21924                   00000001800213e0     m_E5eYYMYEC9250ATstCUIJE.obj
 0003:000013f0       $SG21925                   00000001800213f0     m_E5eYYMYEC9250ATstCUIJE.obj
 0003:00001450       $SG22246                   0000000180021450     m_E5eYYMYEC9250ATstCUIJE.obj
 0003:00001460       $SG22296                   0000000180021460     m_E5eYYMYEC9250ATstCUIJE.obj
 0003:00001470       emlrtRSI                   0000000180021470     m_E5eYYMYEC9250ATstCUIJE.obj
 0003:00001488       b_emlrtRSI                 0000000180021488     m_E5eYYMYEC9250ATstCUIJE.obj
 0003:000014a0       c_emlrtRSI                 00000001800214a0     m_E5eYYMYEC9250ATstCUIJE.obj
 0003:000014b8       d_emlrtRSI                 00000001800214b8     m_E5eYYMYEC9250ATstCUIJE.obj
 0003:000014d0       e_emlrtRSI                 00000001800214d0     m_E5eYYMYEC9250ATstCUIJE.obj
 0003:000014e8       f_emlrtRSI                 00000001800214e8     m_E5eYYMYEC9250ATstCUIJE.obj
 0003:00001500       g_emlrtRSI                 0000000180021500     m_E5eYYMYEC9250ATstCUIJE.obj
 0003:00001518       h_emlrtRSI                 0000000180021518     m_E5eYYMYEC9250ATstCUIJE.obj
 0003:00001530       emlrtMCI                   0000000180021530     m_E5eYYMYEC9250ATstCUIJE.obj
 0003:00001548       ?b_u@?1??SystemCore_setup@@9@9 0000000180021548     m_E5eYYMYEC9250ATstCUIJE.obj
 0003:0000157c       ?d_u@?1??SystemCore_setup@@9@9 000000018002157c     m_E5eYYMYEC9250ATstCUIJE.obj
 0003:00001584       ?d_u@?1??mw__internal__call__step@@9@9 0000000180021584     m_E5eYYMYEC9250ATstCUIJE.obj
 0003:00001588       ?b_u@?1??mw__internal__call__reset@@9@9 0000000180021588     m_E5eYYMYEC9250ATstCUIJE.obj
 0003:000015b8       ?d_u@?1??mw__internal__call__reset@@9@9 00000001800215b8     m_E5eYYMYEC9250ATstCUIJE.obj
 0003:000015c0       ?b_u@?1??mw__internal__call__step@@9@9 00000001800215c0     m_E5eYYMYEC9250ATstCUIJE.obj
 0003:000015f0       ?sv@?1??emlrt_marshallOut@@9@9 00000001800215f0     m_E5eYYMYEC9250ATstCUIJE.obj
 0003:000015f8       $SG22247                   00000001800215f8     m_E5eYYMYEC9250ATstCUIJE.obj
 0003:00001608       $SG22264                   0000000180021608     m_E5eYYMYEC9250ATstCUIJE.obj
 0003:00001610       $SG22265                   0000000180021610     m_E5eYYMYEC9250ATstCUIJE.obj
 0003:00001618       $SG22266                   0000000180021618     m_E5eYYMYEC9250ATstCUIJE.obj
 0003:0000162c       $SG22371                   000000018002162c     m_E5eYYMYEC9250ATstCUIJE.obj
 0003:00001638       $SG22267                   0000000180021638     m_E5eYYMYEC9250ATstCUIJE.obj
 0003:0000164c       $SG22385                   000000018002164c     m_E5eYYMYEC9250ATstCUIJE.obj
 0003:00001658       ?fieldNames@?1??c_emlrt_marshallIn@@9@9 0000000180021658     m_E5eYYMYEC9250ATstCUIJE.obj
 0003:00001660       $SG22297                   0000000180021660     m_E5eYYMYEC9250ATstCUIJE.obj
 0003:00001670       $SG22298                   0000000180021670     m_E5eYYMYEC9250ATstCUIJE.obj
 0003:00001680       $SG22347                   0000000180021680     m_E5eYYMYEC9250ATstCUIJE.obj
 0003:00001688       $SG22358                   0000000180021688     m_E5eYYMYEC9250ATstCUIJE.obj
 0003:00001698       $SG22398                   0000000180021698     m_E5eYYMYEC9250ATstCUIJE.obj
 0003:000016a0       $SG22504                   00000001800216a0     m_E5eYYMYEC9250ATstCUIJE.obj
 0003:000016c8       $SG22513                   00000001800216c8     m_E5eYYMYEC9250ATstCUIJE.obj
 0003:000016d8       $SG22515                   00000001800216d8     m_E5eYYMYEC9250ATstCUIJE.obj
 0003:000016f0       $SG22516                   00000001800216f0     m_E5eYYMYEC9250ATstCUIJE.obj
 0003:00001700       $SG22517                   0000000180021700     m_E5eYYMYEC9250ATstCUIJE.obj
 0003:00001730       $SG21900                   0000000180021730     m_KfaDhNL7xJVG1u0RUxB9sH.obj
 0003:00001750       $SG21901                   0000000180021750     m_KfaDhNL7xJVG1u0RUxB9sH.obj
 0003:000017d0       $SG21903                   00000001800217d0     m_KfaDhNL7xJVG1u0RUxB9sH.obj
 0003:000017e0       $SG21904                   00000001800217e0     m_KfaDhNL7xJVG1u0RUxB9sH.obj
 0003:00001840       $SG21906                   0000000180021840     m_KfaDhNL7xJVG1u0RUxB9sH.obj
 0003:00001850       $SG21907                   0000000180021850     m_KfaDhNL7xJVG1u0RUxB9sH.obj
 0003:000018b0       $SG21909                   00000001800218b0     m_KfaDhNL7xJVG1u0RUxB9sH.obj
 0003:000018c0       $SG21910                   00000001800218c0     m_KfaDhNL7xJVG1u0RUxB9sH.obj
 0003:00001920       $SG21924                   0000000180021920     m_KfaDhNL7xJVG1u0RUxB9sH.obj
 0003:00001930       $SG21925                   0000000180021930     m_KfaDhNL7xJVG1u0RUxB9sH.obj
 0003:00001990       $SG22246                   0000000180021990     m_KfaDhNL7xJVG1u0RUxB9sH.obj
 0003:000019a0       $SG22296                   00000001800219a0     m_KfaDhNL7xJVG1u0RUxB9sH.obj
 0003:000019b0       emlrtRSI                   00000001800219b0     m_KfaDhNL7xJVG1u0RUxB9sH.obj
 0003:000019c8       b_emlrtRSI                 00000001800219c8     m_KfaDhNL7xJVG1u0RUxB9sH.obj
 0003:000019e0       c_emlrtRSI                 00000001800219e0     m_KfaDhNL7xJVG1u0RUxB9sH.obj
 0003:000019f8       d_emlrtRSI                 00000001800219f8     m_KfaDhNL7xJVG1u0RUxB9sH.obj
 0003:00001a10       e_emlrtRSI                 0000000180021a10     m_KfaDhNL7xJVG1u0RUxB9sH.obj
 0003:00001a28       f_emlrtRSI                 0000000180021a28     m_KfaDhNL7xJVG1u0RUxB9sH.obj
 0003:00001a40       g_emlrtRSI                 0000000180021a40     m_KfaDhNL7xJVG1u0RUxB9sH.obj
 0003:00001a58       h_emlrtRSI                 0000000180021a58     m_KfaDhNL7xJVG1u0RUxB9sH.obj
 0003:00001a70       emlrtMCI                   0000000180021a70     m_KfaDhNL7xJVG1u0RUxB9sH.obj
 0003:00001a88       ?b_u@?1??SystemCore_setup@@9@9 0000000180021a88     m_KfaDhNL7xJVG1u0RUxB9sH.obj
 0003:00001abc       ?d_u@?1??SystemCore_setup@@9@9 0000000180021abc     m_KfaDhNL7xJVG1u0RUxB9sH.obj
 0003:00001ac4       ?d_u@?1??mw__internal__call__step@@9@9 0000000180021ac4     m_KfaDhNL7xJVG1u0RUxB9sH.obj
 0003:00001ac8       ?b_u@?1??mw__internal__call__reset@@9@9 0000000180021ac8     m_KfaDhNL7xJVG1u0RUxB9sH.obj
 0003:00001af8       ?d_u@?1??mw__internal__call__reset@@9@9 0000000180021af8     m_KfaDhNL7xJVG1u0RUxB9sH.obj
 0003:00001b00       ?b_u@?1??mw__internal__call__step@@9@9 0000000180021b00     m_KfaDhNL7xJVG1u0RUxB9sH.obj
 0003:00001b30       ?sv@?1??emlrt_marshallOut@@9@9 0000000180021b30     m_KfaDhNL7xJVG1u0RUxB9sH.obj
 0003:00001b38       $SG22247                   0000000180021b38     m_KfaDhNL7xJVG1u0RUxB9sH.obj
 0003:00001b48       $SG22264                   0000000180021b48     m_KfaDhNL7xJVG1u0RUxB9sH.obj
 0003:00001b50       $SG22265                   0000000180021b50     m_KfaDhNL7xJVG1u0RUxB9sH.obj
 0003:00001b58       $SG22266                   0000000180021b58     m_KfaDhNL7xJVG1u0RUxB9sH.obj
 0003:00001b6c       $SG22371                   0000000180021b6c     m_KfaDhNL7xJVG1u0RUxB9sH.obj
 0003:00001b78       $SG22267                   0000000180021b78     m_KfaDhNL7xJVG1u0RUxB9sH.obj
 0003:00001b8c       $SG22385                   0000000180021b8c     m_KfaDhNL7xJVG1u0RUxB9sH.obj
 0003:00001b98       ?fieldNames@?1??c_emlrt_marshallIn@@9@9 0000000180021b98     m_KfaDhNL7xJVG1u0RUxB9sH.obj
 0003:00001ba0       $SG22297                   0000000180021ba0     m_KfaDhNL7xJVG1u0RUxB9sH.obj
 0003:00001bb0       $SG22298                   0000000180021bb0     m_KfaDhNL7xJVG1u0RUxB9sH.obj
 0003:00001bc0       $SG22347                   0000000180021bc0     m_KfaDhNL7xJVG1u0RUxB9sH.obj
 0003:00001bc8       $SG22358                   0000000180021bc8     m_KfaDhNL7xJVG1u0RUxB9sH.obj
 0003:00001bd8       $SG22398                   0000000180021bd8     m_KfaDhNL7xJVG1u0RUxB9sH.obj
 0003:00001be0       $SG22504                   0000000180021be0     m_KfaDhNL7xJVG1u0RUxB9sH.obj
 0003:00001c08       $SG22513                   0000000180021c08     m_KfaDhNL7xJVG1u0RUxB9sH.obj
 0003:00001c18       $SG22515                   0000000180021c18     m_KfaDhNL7xJVG1u0RUxB9sH.obj
 0003:00001c30       $SG22516                   0000000180021c30     m_KfaDhNL7xJVG1u0RUxB9sH.obj
 0003:00001c40       $SG22517                   0000000180021c40     m_KfaDhNL7xJVG1u0RUxB9sH.obj
 0003:00001c70       $SG21900                   0000000180021c70     m_nyucgZWjM3Ai1CT2jftVoF.obj
 0003:00001c90       $SG21901                   0000000180021c90     m_nyucgZWjM3Ai1CT2jftVoF.obj
 0003:00001d10       $SG21903                   0000000180021d10     m_nyucgZWjM3Ai1CT2jftVoF.obj
 0003:00001d20       $SG21904                   0000000180021d20     m_nyucgZWjM3Ai1CT2jftVoF.obj
 0003:00001d80       $SG21906                   0000000180021d80     m_nyucgZWjM3Ai1CT2jftVoF.obj
 0003:00001d90       $SG21907                   0000000180021d90     m_nyucgZWjM3Ai1CT2jftVoF.obj
 0003:00001df0       $SG21909                   0000000180021df0     m_nyucgZWjM3Ai1CT2jftVoF.obj
 0003:00001e00       $SG21910                   0000000180021e00     m_nyucgZWjM3Ai1CT2jftVoF.obj
 0003:00001e60       $SG21924                   0000000180021e60     m_nyucgZWjM3Ai1CT2jftVoF.obj
 0003:00001e70       $SG21925                   0000000180021e70     m_nyucgZWjM3Ai1CT2jftVoF.obj
 0003:00001ed0       $SG22246                   0000000180021ed0     m_nyucgZWjM3Ai1CT2jftVoF.obj
 0003:00001ee0       $SG22296                   0000000180021ee0     m_nyucgZWjM3Ai1CT2jftVoF.obj
 0003:00001ef0       emlrtRSI                   0000000180021ef0     m_nyucgZWjM3Ai1CT2jftVoF.obj
 0003:00001f08       b_emlrtRSI                 0000000180021f08     m_nyucgZWjM3Ai1CT2jftVoF.obj
 0003:00001f20       c_emlrtRSI                 0000000180021f20     m_nyucgZWjM3Ai1CT2jftVoF.obj
 0003:00001f38       d_emlrtRSI                 0000000180021f38     m_nyucgZWjM3Ai1CT2jftVoF.obj
 0003:00001f50       e_emlrtRSI                 0000000180021f50     m_nyucgZWjM3Ai1CT2jftVoF.obj
 0003:00001f68       f_emlrtRSI                 0000000180021f68     m_nyucgZWjM3Ai1CT2jftVoF.obj
 0003:00001f80       g_emlrtRSI                 0000000180021f80     m_nyucgZWjM3Ai1CT2jftVoF.obj
 0003:00001f98       h_emlrtRSI                 0000000180021f98     m_nyucgZWjM3Ai1CT2jftVoF.obj
 0003:00001fb0       emlrtMCI                   0000000180021fb0     m_nyucgZWjM3Ai1CT2jftVoF.obj
 0003:00001fc8       ?b_u@?1??SystemCore_setup@@9@9 0000000180021fc8     m_nyucgZWjM3Ai1CT2jftVoF.obj
 0003:00001ffc       ?d_u@?1??SystemCore_setup@@9@9 0000000180021ffc     m_nyucgZWjM3Ai1CT2jftVoF.obj
 0003:00002004       ?d_u@?1??mw__internal__call__step@@9@9 0000000180022004     m_nyucgZWjM3Ai1CT2jftVoF.obj
 0003:00002008       ?b_u@?1??mw__internal__call__reset@@9@9 0000000180022008     m_nyucgZWjM3Ai1CT2jftVoF.obj
 0003:00002038       ?d_u@?1??mw__internal__call__reset@@9@9 0000000180022038     m_nyucgZWjM3Ai1CT2jftVoF.obj
 0003:00002040       ?b_u@?1??mw__internal__call__step@@9@9 0000000180022040     m_nyucgZWjM3Ai1CT2jftVoF.obj
 0003:00002070       ?sv@?1??emlrt_marshallOut@@9@9 0000000180022070     m_nyucgZWjM3Ai1CT2jftVoF.obj
 0003:00002078       $SG22247                   0000000180022078     m_nyucgZWjM3Ai1CT2jftVoF.obj
 0003:00002088       $SG22264                   0000000180022088     m_nyucgZWjM3Ai1CT2jftVoF.obj
 0003:00002090       $SG22265                   0000000180022090     m_nyucgZWjM3Ai1CT2jftVoF.obj
 0003:00002098       $SG22266                   0000000180022098     m_nyucgZWjM3Ai1CT2jftVoF.obj
 0003:000020ac       $SG22371                   00000001800220ac     m_nyucgZWjM3Ai1CT2jftVoF.obj
 0003:000020b8       $SG22267                   00000001800220b8     m_nyucgZWjM3Ai1CT2jftVoF.obj
 0003:000020cc       $SG22385                   00000001800220cc     m_nyucgZWjM3Ai1CT2jftVoF.obj
 0003:000020d8       ?fieldNames@?1??c_emlrt_marshallIn@@9@9 00000001800220d8     m_nyucgZWjM3Ai1CT2jftVoF.obj
 0003:000020e0       $SG22297                   00000001800220e0     m_nyucgZWjM3Ai1CT2jftVoF.obj
 0003:000020f0       $SG22298                   00000001800220f0     m_nyucgZWjM3Ai1CT2jftVoF.obj
 0003:00002100       $SG22347                   0000000180022100     m_nyucgZWjM3Ai1CT2jftVoF.obj
 0003:00002108       $SG22358                   0000000180022108     m_nyucgZWjM3Ai1CT2jftVoF.obj
 0003:00002118       $SG22398                   0000000180022118     m_nyucgZWjM3Ai1CT2jftVoF.obj
 0003:00002120       $SG22504                   0000000180022120     m_nyucgZWjM3Ai1CT2jftVoF.obj
 0003:00002148       $SG22513                   0000000180022148     m_nyucgZWjM3Ai1CT2jftVoF.obj
 0003:00002158       $SG22515                   0000000180022158     m_nyucgZWjM3Ai1CT2jftVoF.obj
 0003:00002170       $SG22516                   0000000180022170     m_nyucgZWjM3Ai1CT2jftVoF.obj
 0003:00002180       $SG22517                   0000000180022180     m_nyucgZWjM3Ai1CT2jftVoF.obj
 0003:000021b0       $SG21900                   00000001800221b0     m_KDwHGQ2xXp4wmWKPmnDGqC.obj
 0003:000021d0       $SG21901                   00000001800221d0     m_KDwHGQ2xXp4wmWKPmnDGqC.obj
 0003:00002250       $SG21903                   0000000180022250     m_KDwHGQ2xXp4wmWKPmnDGqC.obj
 0003:00002260       $SG21904                   0000000180022260     m_KDwHGQ2xXp4wmWKPmnDGqC.obj
 0003:000022c0       $SG21906                   00000001800222c0     m_KDwHGQ2xXp4wmWKPmnDGqC.obj
 0003:000022d0       $SG21907                   00000001800222d0     m_KDwHGQ2xXp4wmWKPmnDGqC.obj
 0003:00002330       $SG21909                   0000000180022330     m_KDwHGQ2xXp4wmWKPmnDGqC.obj
 0003:00002340       $SG21910                   0000000180022340     m_KDwHGQ2xXp4wmWKPmnDGqC.obj
 0003:000023a0       $SG21924                   00000001800223a0     m_KDwHGQ2xXp4wmWKPmnDGqC.obj
 0003:000023b0       $SG21925                   00000001800223b0     m_KDwHGQ2xXp4wmWKPmnDGqC.obj
 0003:00002410       $SG22246                   0000000180022410     m_KDwHGQ2xXp4wmWKPmnDGqC.obj
 0003:00002420       $SG22296                   0000000180022420     m_KDwHGQ2xXp4wmWKPmnDGqC.obj
 0003:00002430       emlrtRSI                   0000000180022430     m_KDwHGQ2xXp4wmWKPmnDGqC.obj
 0003:00002448       b_emlrtRSI                 0000000180022448     m_KDwHGQ2xXp4wmWKPmnDGqC.obj
 0003:00002460       c_emlrtRSI                 0000000180022460     m_KDwHGQ2xXp4wmWKPmnDGqC.obj
 0003:00002478       d_emlrtRSI                 0000000180022478     m_KDwHGQ2xXp4wmWKPmnDGqC.obj
 0003:00002490       e_emlrtRSI                 0000000180022490     m_KDwHGQ2xXp4wmWKPmnDGqC.obj
 0003:000024a8       f_emlrtRSI                 00000001800224a8     m_KDwHGQ2xXp4wmWKPmnDGqC.obj
 0003:000024c0       g_emlrtRSI                 00000001800224c0     m_KDwHGQ2xXp4wmWKPmnDGqC.obj
 0003:000024d8       h_emlrtRSI                 00000001800224d8     m_KDwHGQ2xXp4wmWKPmnDGqC.obj
 0003:000024f0       emlrtMCI                   00000001800224f0     m_KDwHGQ2xXp4wmWKPmnDGqC.obj
 0003:00002508       ?b_u@?1??SystemCore_setup@@9@9 0000000180022508     m_KDwHGQ2xXp4wmWKPmnDGqC.obj
 0003:0000253c       ?d_u@?1??SystemCore_setup@@9@9 000000018002253c     m_KDwHGQ2xXp4wmWKPmnDGqC.obj
 0003:00002544       ?d_u@?1??mw__internal__call__step@@9@9 0000000180022544     m_KDwHGQ2xXp4wmWKPmnDGqC.obj
 0003:00002548       ?b_u@?1??mw__internal__call__reset@@9@9 0000000180022548     m_KDwHGQ2xXp4wmWKPmnDGqC.obj
 0003:00002578       ?d_u@?1??mw__internal__call__reset@@9@9 0000000180022578     m_KDwHGQ2xXp4wmWKPmnDGqC.obj
 0003:00002580       ?b_u@?1??mw__internal__call__step@@9@9 0000000180022580     m_KDwHGQ2xXp4wmWKPmnDGqC.obj
 0003:000025b0       ?sv@?1??emlrt_marshallOut@@9@9 00000001800225b0     m_KDwHGQ2xXp4wmWKPmnDGqC.obj
 0003:000025b8       $SG22247                   00000001800225b8     m_KDwHGQ2xXp4wmWKPmnDGqC.obj
 0003:000025c8       $SG22264                   00000001800225c8     m_KDwHGQ2xXp4wmWKPmnDGqC.obj
 0003:000025d0       $SG22265                   00000001800225d0     m_KDwHGQ2xXp4wmWKPmnDGqC.obj
 0003:000025d8       $SG22266                   00000001800225d8     m_KDwHGQ2xXp4wmWKPmnDGqC.obj
 0003:000025ec       $SG22371                   00000001800225ec     m_KDwHGQ2xXp4wmWKPmnDGqC.obj
 0003:000025f8       $SG22267                   00000001800225f8     m_KDwHGQ2xXp4wmWKPmnDGqC.obj
 0003:0000260c       $SG22385                   000000018002260c     m_KDwHGQ2xXp4wmWKPmnDGqC.obj
 0003:00002618       ?fieldNames@?1??c_emlrt_marshallIn@@9@9 0000000180022618     m_KDwHGQ2xXp4wmWKPmnDGqC.obj
 0003:00002620       $SG22297                   0000000180022620     m_KDwHGQ2xXp4wmWKPmnDGqC.obj
 0003:00002630       $SG22298                   0000000180022630     m_KDwHGQ2xXp4wmWKPmnDGqC.obj
 0003:00002640       $SG22347                   0000000180022640     m_KDwHGQ2xXp4wmWKPmnDGqC.obj
 0003:00002648       $SG22358                   0000000180022648     m_KDwHGQ2xXp4wmWKPmnDGqC.obj
 0003:00002658       $SG22398                   0000000180022658     m_KDwHGQ2xXp4wmWKPmnDGqC.obj
 0003:00002660       $SG22504                   0000000180022660     m_KDwHGQ2xXp4wmWKPmnDGqC.obj
 0003:00002688       $SG22513                   0000000180022688     m_KDwHGQ2xXp4wmWKPmnDGqC.obj
 0003:00002698       $SG22515                   0000000180022698     m_KDwHGQ2xXp4wmWKPmnDGqC.obj
 0003:000026b0       $SG22516                   00000001800226b0     m_KDwHGQ2xXp4wmWKPmnDGqC.obj
 0003:000026c0       $SG22517                   00000001800226c0     m_KDwHGQ2xXp4wmWKPmnDGqC.obj
 0003:000026f0       $SG21900                   00000001800226f0     m_N6wSUtJycDbE8bKJByzvlC.obj
 0003:00002710       $SG21901                   0000000180022710     m_N6wSUtJycDbE8bKJByzvlC.obj
 0003:00002790       $SG21903                   0000000180022790     m_N6wSUtJycDbE8bKJByzvlC.obj
 0003:000027a0       $SG21904                   00000001800227a0     m_N6wSUtJycDbE8bKJByzvlC.obj
 0003:00002800       $SG21906                   0000000180022800     m_N6wSUtJycDbE8bKJByzvlC.obj
 0003:00002810       $SG21907                   0000000180022810     m_N6wSUtJycDbE8bKJByzvlC.obj
 0003:00002870       $SG21909                   0000000180022870     m_N6wSUtJycDbE8bKJByzvlC.obj
 0003:00002880       $SG21910                   0000000180022880     m_N6wSUtJycDbE8bKJByzvlC.obj
 0003:000028e0       $SG21924                   00000001800228e0     m_N6wSUtJycDbE8bKJByzvlC.obj
 0003:000028f0       $SG21925                   00000001800228f0     m_N6wSUtJycDbE8bKJByzvlC.obj
 0003:00002950       $SG22246                   0000000180022950     m_N6wSUtJycDbE8bKJByzvlC.obj
 0003:00002960       $SG22296                   0000000180022960     m_N6wSUtJycDbE8bKJByzvlC.obj
 0003:00002970       emlrtRSI                   0000000180022970     m_N6wSUtJycDbE8bKJByzvlC.obj
 0003:00002988       b_emlrtRSI                 0000000180022988     m_N6wSUtJycDbE8bKJByzvlC.obj
 0003:000029a0       c_emlrtRSI                 00000001800229a0     m_N6wSUtJycDbE8bKJByzvlC.obj
 0003:000029b8       d_emlrtRSI                 00000001800229b8     m_N6wSUtJycDbE8bKJByzvlC.obj
 0003:000029d0       e_emlrtRSI                 00000001800229d0     m_N6wSUtJycDbE8bKJByzvlC.obj
 0003:000029e8       f_emlrtRSI                 00000001800229e8     m_N6wSUtJycDbE8bKJByzvlC.obj
 0003:00002a00       g_emlrtRSI                 0000000180022a00     m_N6wSUtJycDbE8bKJByzvlC.obj
 0003:00002a18       h_emlrtRSI                 0000000180022a18     m_N6wSUtJycDbE8bKJByzvlC.obj
 0003:00002a30       emlrtMCI                   0000000180022a30     m_N6wSUtJycDbE8bKJByzvlC.obj
 0003:00002a48       ?b_u@?1??SystemCore_setup@@9@9 0000000180022a48     m_N6wSUtJycDbE8bKJByzvlC.obj
 0003:00002a7c       ?d_u@?1??SystemCore_setup@@9@9 0000000180022a7c     m_N6wSUtJycDbE8bKJByzvlC.obj
 0003:00002a84       ?d_u@?1??mw__internal__call__step@@9@9 0000000180022a84     m_N6wSUtJycDbE8bKJByzvlC.obj
 0003:00002a88       ?b_u@?1??mw__internal__call__reset@@9@9 0000000180022a88     m_N6wSUtJycDbE8bKJByzvlC.obj
 0003:00002ab8       ?d_u@?1??mw__internal__call__reset@@9@9 0000000180022ab8     m_N6wSUtJycDbE8bKJByzvlC.obj
 0003:00002ac0       ?b_u@?1??mw__internal__call__step@@9@9 0000000180022ac0     m_N6wSUtJycDbE8bKJByzvlC.obj
 0003:00002af0       ?sv@?1??emlrt_marshallOut@@9@9 0000000180022af0     m_N6wSUtJycDbE8bKJByzvlC.obj
 0003:00002af8       $SG22247                   0000000180022af8     m_N6wSUtJycDbE8bKJByzvlC.obj
 0003:00002b08       $SG22264                   0000000180022b08     m_N6wSUtJycDbE8bKJByzvlC.obj
 0003:00002b10       $SG22265                   0000000180022b10     m_N6wSUtJycDbE8bKJByzvlC.obj
 0003:00002b18       $SG22266                   0000000180022b18     m_N6wSUtJycDbE8bKJByzvlC.obj
 0003:00002b2c       $SG22371                   0000000180022b2c     m_N6wSUtJycDbE8bKJByzvlC.obj
 0003:00002b38       $SG22267                   0000000180022b38     m_N6wSUtJycDbE8bKJByzvlC.obj
 0003:00002b4c       $SG22385                   0000000180022b4c     m_N6wSUtJycDbE8bKJByzvlC.obj
 0003:00002b58       ?fieldNames@?1??c_emlrt_marshallIn@@9@9 0000000180022b58     m_N6wSUtJycDbE8bKJByzvlC.obj
 0003:00002b60       $SG22297                   0000000180022b60     m_N6wSUtJycDbE8bKJByzvlC.obj
 0003:00002b70       $SG22298                   0000000180022b70     m_N6wSUtJycDbE8bKJByzvlC.obj
 0003:00002b80       $SG22347                   0000000180022b80     m_N6wSUtJycDbE8bKJByzvlC.obj
 0003:00002b88       $SG22358                   0000000180022b88     m_N6wSUtJycDbE8bKJByzvlC.obj
 0003:00002b98       $SG22398                   0000000180022b98     m_N6wSUtJycDbE8bKJByzvlC.obj
 0003:00002ba0       $SG22504                   0000000180022ba0     m_N6wSUtJycDbE8bKJByzvlC.obj
 0003:00002bc8       $SG22513                   0000000180022bc8     m_N6wSUtJycDbE8bKJByzvlC.obj
 0003:00002bd8       $SG22515                   0000000180022bd8     m_N6wSUtJycDbE8bKJByzvlC.obj
 0003:00002bf0       $SG22516                   0000000180022bf0     m_N6wSUtJycDbE8bKJByzvlC.obj
 0003:00002c00       $SG22517                   0000000180022c00     m_N6wSUtJycDbE8bKJByzvlC.obj
 0003:00002c30       $SG21894                   0000000180022c30     m_rv2q6Si9yo15c6LurhHJ.obj
 0003:00002c50       $SG21895                   0000000180022c50     m_rv2q6Si9yo15c6LurhHJ.obj
 0003:00002cd0       $SG21897                   0000000180022cd0     m_rv2q6Si9yo15c6LurhHJ.obj
 0003:00002ce0       $SG21898                   0000000180022ce0     m_rv2q6Si9yo15c6LurhHJ.obj
 0003:00002d40       $SG21900                   0000000180022d40     m_rv2q6Si9yo15c6LurhHJ.obj
 0003:00002d50       $SG21901                   0000000180022d50     m_rv2q6Si9yo15c6LurhHJ.obj
 0003:00002db0       $SG21903                   0000000180022db0     m_rv2q6Si9yo15c6LurhHJ.obj
 0003:00002dc0       $SG21904                   0000000180022dc0     m_rv2q6Si9yo15c6LurhHJ.obj
 0003:00002e20       $SG21918                   0000000180022e20     m_rv2q6Si9yo15c6LurhHJ.obj
 0003:00002e30       $SG21919                   0000000180022e30     m_rv2q6Si9yo15c6LurhHJ.obj
 0003:00002e90       $SG22240                   0000000180022e90     m_rv2q6Si9yo15c6LurhHJ.obj
 0003:00002ea0       $SG22290                   0000000180022ea0     m_rv2q6Si9yo15c6LurhHJ.obj
 0003:00002eb0       emlrtRSI                   0000000180022eb0     m_rv2q6Si9yo15c6LurhHJ.obj
 0003:00002ec8       b_emlrtRSI                 0000000180022ec8     m_rv2q6Si9yo15c6LurhHJ.obj
 0003:00002ee0       c_emlrtRSI                 0000000180022ee0     m_rv2q6Si9yo15c6LurhHJ.obj
 0003:00002ef8       d_emlrtRSI                 0000000180022ef8     m_rv2q6Si9yo15c6LurhHJ.obj
 0003:00002f10       e_emlrtRSI                 0000000180022f10     m_rv2q6Si9yo15c6LurhHJ.obj
 0003:00002f28       f_emlrtRSI                 0000000180022f28     m_rv2q6Si9yo15c6LurhHJ.obj
 0003:00002f40       g_emlrtRSI                 0000000180022f40     m_rv2q6Si9yo15c6LurhHJ.obj
 0003:00002f58       h_emlrtRSI                 0000000180022f58     m_rv2q6Si9yo15c6LurhHJ.obj
 0003:00002f70       emlrtMCI                   0000000180022f70     m_rv2q6Si9yo15c6LurhHJ.obj
 0003:00002f88       ?b_u@?1??SystemCore_setup@@9@9 0000000180022f88     m_rv2q6Si9yo15c6LurhHJ.obj
 0003:00002fbc       ?d_u@?1??SystemCore_setup@@9@9 0000000180022fbc     m_rv2q6Si9yo15c6LurhHJ.obj
 0003:00002fc4       ?d_u@?1??mw__internal__call__step@@9@9 0000000180022fc4     m_rv2q6Si9yo15c6LurhHJ.obj
 0003:00002fc8       ?b_u@?1??mw__internal__call__reset@@9@9 0000000180022fc8     m_rv2q6Si9yo15c6LurhHJ.obj
 0003:00002ff8       ?d_u@?1??mw__internal__call__reset@@9@9 0000000180022ff8     m_rv2q6Si9yo15c6LurhHJ.obj
 0003:00003000       ?b_u@?1??mw__internal__call__step@@9@9 0000000180023000     m_rv2q6Si9yo15c6LurhHJ.obj
 0003:00003030       ?sv@?1??emlrt_marshallOut@@9@9 0000000180023030     m_rv2q6Si9yo15c6LurhHJ.obj
 0003:00003038       $SG22241                   0000000180023038     m_rv2q6Si9yo15c6LurhHJ.obj
 0003:00003048       $SG22258                   0000000180023048     m_rv2q6Si9yo15c6LurhHJ.obj
 0003:00003050       $SG22259                   0000000180023050     m_rv2q6Si9yo15c6LurhHJ.obj
 0003:00003058       $SG22260                   0000000180023058     m_rv2q6Si9yo15c6LurhHJ.obj
 0003:0000306c       $SG22365                   000000018002306c     m_rv2q6Si9yo15c6LurhHJ.obj
 0003:00003078       $SG22261                   0000000180023078     m_rv2q6Si9yo15c6LurhHJ.obj
 0003:0000308c       $SG22379                   000000018002308c     m_rv2q6Si9yo15c6LurhHJ.obj
 0003:00003098       ?fieldNames@?1??c_emlrt_marshallIn@@9@9 0000000180023098     m_rv2q6Si9yo15c6LurhHJ.obj
 0003:000030a0       $SG22291                   00000001800230a0     m_rv2q6Si9yo15c6LurhHJ.obj
 0003:000030b0       $SG22292                   00000001800230b0     m_rv2q6Si9yo15c6LurhHJ.obj
 0003:000030c0       $SG22341                   00000001800230c0     m_rv2q6Si9yo15c6LurhHJ.obj
 0003:000030c8       $SG22352                   00000001800230c8     m_rv2q6Si9yo15c6LurhHJ.obj
 0003:000030d8       $SG22392                   00000001800230d8     m_rv2q6Si9yo15c6LurhHJ.obj
 0003:000030e0       $SG22498                   00000001800230e0     m_rv2q6Si9yo15c6LurhHJ.obj
 0003:00003108       $SG22507                   0000000180023108     m_rv2q6Si9yo15c6LurhHJ.obj
 0003:00003118       $SG22509                   0000000180023118     m_rv2q6Si9yo15c6LurhHJ.obj
 0003:00003130       $SG22510                   0000000180023130     m_rv2q6Si9yo15c6LurhHJ.obj
 0003:00003140       $SG22511                   0000000180023140     m_rv2q6Si9yo15c6LurhHJ.obj
 0003:00003170       $SG21900                   0000000180023170     m_0IWK4xPALvAwGYJfiJSKHC.obj
 0003:00003190       $SG21901                   0000000180023190     m_0IWK4xPALvAwGYJfiJSKHC.obj
 0003:00003210       $SG21903                   0000000180023210     m_0IWK4xPALvAwGYJfiJSKHC.obj
 0003:00003220       $SG21904                   0000000180023220     m_0IWK4xPALvAwGYJfiJSKHC.obj
 0003:00003280       $SG21906                   0000000180023280     m_0IWK4xPALvAwGYJfiJSKHC.obj
 0003:00003290       $SG21907                   0000000180023290     m_0IWK4xPALvAwGYJfiJSKHC.obj
 0003:000032f0       $SG21909                   00000001800232f0     m_0IWK4xPALvAwGYJfiJSKHC.obj
 0003:00003300       $SG21910                   0000000180023300     m_0IWK4xPALvAwGYJfiJSKHC.obj
 0003:00003360       $SG21924                   0000000180023360     m_0IWK4xPALvAwGYJfiJSKHC.obj
 0003:00003370       $SG21925                   0000000180023370     m_0IWK4xPALvAwGYJfiJSKHC.obj
 0003:000033d0       $SG22246                   00000001800233d0     m_0IWK4xPALvAwGYJfiJSKHC.obj
 0003:000033e0       $SG22296                   00000001800233e0     m_0IWK4xPALvAwGYJfiJSKHC.obj
 0003:000033f0       emlrtRSI                   00000001800233f0     m_0IWK4xPALvAwGYJfiJSKHC.obj
 0003:00003408       b_emlrtRSI                 0000000180023408     m_0IWK4xPALvAwGYJfiJSKHC.obj
 0003:00003420       c_emlrtRSI                 0000000180023420     m_0IWK4xPALvAwGYJfiJSKHC.obj
 0003:00003438       d_emlrtRSI                 0000000180023438     m_0IWK4xPALvAwGYJfiJSKHC.obj
 0003:00003450       e_emlrtRSI                 0000000180023450     m_0IWK4xPALvAwGYJfiJSKHC.obj
 0003:00003468       f_emlrtRSI                 0000000180023468     m_0IWK4xPALvAwGYJfiJSKHC.obj
 0003:00003480       g_emlrtRSI                 0000000180023480     m_0IWK4xPALvAwGYJfiJSKHC.obj
 0003:00003498       h_emlrtRSI                 0000000180023498     m_0IWK4xPALvAwGYJfiJSKHC.obj
 0003:000034b0       emlrtMCI                   00000001800234b0     m_0IWK4xPALvAwGYJfiJSKHC.obj
 0003:000034c8       ?b_u@?1??SystemCore_setup@@9@9 00000001800234c8     m_0IWK4xPALvAwGYJfiJSKHC.obj
 0003:000034fc       ?d_u@?1??SystemCore_setup@@9@9 00000001800234fc     m_0IWK4xPALvAwGYJfiJSKHC.obj
 0003:00003504       ?d_u@?1??mw__internal__call__step@@9@9 0000000180023504     m_0IWK4xPALvAwGYJfiJSKHC.obj
 0003:00003508       ?b_u@?1??mw__internal__call__reset@@9@9 0000000180023508     m_0IWK4xPALvAwGYJfiJSKHC.obj
 0003:00003538       ?d_u@?1??mw__internal__call__reset@@9@9 0000000180023538     m_0IWK4xPALvAwGYJfiJSKHC.obj
 0003:00003540       ?b_u@?1??mw__internal__call__step@@9@9 0000000180023540     m_0IWK4xPALvAwGYJfiJSKHC.obj
 0003:00003570       ?sv@?1??emlrt_marshallOut@@9@9 0000000180023570     m_0IWK4xPALvAwGYJfiJSKHC.obj
 0003:00003578       $SG22247                   0000000180023578     m_0IWK4xPALvAwGYJfiJSKHC.obj
 0003:00003588       $SG22264                   0000000180023588     m_0IWK4xPALvAwGYJfiJSKHC.obj
 0003:00003590       $SG22265                   0000000180023590     m_0IWK4xPALvAwGYJfiJSKHC.obj
 0003:00003598       $SG22266                   0000000180023598     m_0IWK4xPALvAwGYJfiJSKHC.obj
 0003:000035ac       $SG22371                   00000001800235ac     m_0IWK4xPALvAwGYJfiJSKHC.obj
 0003:000035b8       $SG22267                   00000001800235b8     m_0IWK4xPALvAwGYJfiJSKHC.obj
 0003:000035cc       $SG22385                   00000001800235cc     m_0IWK4xPALvAwGYJfiJSKHC.obj
 0003:000035d8       ?fieldNames@?1??c_emlrt_marshallIn@@9@9 00000001800235d8     m_0IWK4xPALvAwGYJfiJSKHC.obj
 0003:000035e0       $SG22297                   00000001800235e0     m_0IWK4xPALvAwGYJfiJSKHC.obj
 0003:000035f0       $SG22298                   00000001800235f0     m_0IWK4xPALvAwGYJfiJSKHC.obj
 0003:00003600       $SG22347                   0000000180023600     m_0IWK4xPALvAwGYJfiJSKHC.obj
 0003:00003608       $SG22358                   0000000180023608     m_0IWK4xPALvAwGYJfiJSKHC.obj
 0003:00003618       $SG22398                   0000000180023618     m_0IWK4xPALvAwGYJfiJSKHC.obj
 0003:00003620       $SG22504                   0000000180023620     m_0IWK4xPALvAwGYJfiJSKHC.obj
 0003:00003648       $SG22513                   0000000180023648     m_0IWK4xPALvAwGYJfiJSKHC.obj
 0003:00003658       $SG22515                   0000000180023658     m_0IWK4xPALvAwGYJfiJSKHC.obj
 0003:00003670       $SG22516                   0000000180023670     m_0IWK4xPALvAwGYJfiJSKHC.obj
 0003:00003680       $SG22517                   0000000180023680     m_0IWK4xPALvAwGYJfiJSKHC.obj
 0003:000036b8       $SG21256                   00000001800236b8     Child_App_cgxe_registry.obj
 0003:000036e8       $SG21261                   00000001800236e8     Child_App_cgxe_registry.obj
 0003:00003728       $SG21268                   0000000180023728     Child_App_cgxe_registry.obj
 0003:0000375c       $SG21334                   000000018002375c     Child_App_cgxe_registry.obj
 0003:00003764       $SG21338                   0000000180023764     Child_App_cgxe_registry.obj
 0003:0000376c       $SG23275                   000000018002376c     Child_App_cgxe_registry.obj
 0003:00003770       $SG21275                   0000000180023770     Child_App_cgxe_registry.obj
 0003:000037a4       $SG21344                   00000001800237a4     Child_App_cgxe_registry.obj
 0003:000037ac       $SG23356                   00000001800237ac     Child_App_cgxe_registry.obj
 0003:000037b0       $SG21280                   00000001800237b0     Child_App_cgxe_registry.obj
 0003:000037e8       $SG21332                   00000001800237e8     Child_App_cgxe_registry.obj
 0003:000037f0       $SG21336                   00000001800237f0     Child_App_cgxe_registry.obj
 0003:00003800       $SG21340                   0000000180023800     Child_App_cgxe_registry.obj
 0003:00003808       $SG21341                   0000000180023808     Child_App_cgxe_registry.obj
 0003:00003810       $SG21342                   0000000180023810     Child_App_cgxe_registry.obj
 0003:00003818       $SG21343                   0000000180023818     Child_App_cgxe_registry.obj
 0003:00003828       $SG21345                   0000000180023828     Child_App_cgxe_registry.obj
 0003:00003830       $SG21390                   0000000180023830     Child_App_cgxe_registry.obj
 0003:00003860       $SG21405                   0000000180023860     Child_App_cgxe_registry.obj
 0003:00003890       $SG21441                   0000000180023890     Child_App_cgxe_registry.obj
 0003:000038a8       $SG21443                   00000001800238a8     Child_App_cgxe_registry.obj
 0003:000038c0       $SG21445                   00000001800238c0     Child_App_cgxe_registry.obj
 0003:000038d8       $SG21447                   00000001800238d8     Child_App_cgxe_registry.obj
 0003:000038f0       $SG21449                   00000001800238f0     Child_App_cgxe_registry.obj
 0003:00003908       $SG21451                   0000000180023908     Child_App_cgxe_registry.obj
 0003:00003920       $SG21453                   0000000180023920     Child_App_cgxe_registry.obj
 0003:00003938       $SG21455                   0000000180023938     Child_App_cgxe_registry.obj
 0003:00003950       $SG21457                   0000000180023950     Child_App_cgxe_registry.obj
 0003:00003968       $SG21459                   0000000180023968     Child_App_cgxe_registry.obj
 0003:00003980       $SG21495                   0000000180023980     Child_App_cgxe_registry.obj
 0003:00003998       $SG21497                   0000000180023998     Child_App_cgxe_registry.obj
 0003:000039b0       $SG21499                   00000001800239b0     Child_App_cgxe_registry.obj
 0003:000039c8       $SG21501                   00000001800239c8     Child_App_cgxe_registry.obj
 0003:000039e0       $SG21503                   00000001800239e0     Child_App_cgxe_registry.obj
 0003:000039f8       $SG21505                   00000001800239f8     Child_App_cgxe_registry.obj
 0003:00003a10       $SG21507                   0000000180023a10     Child_App_cgxe_registry.obj
 0003:00003a28       $SG21509                   0000000180023a28     Child_App_cgxe_registry.obj
 0003:00003a40       $SG21511                   0000000180023a40     Child_App_cgxe_registry.obj
 0003:00003a58       $SG21513                   0000000180023a58     Child_App_cgxe_registry.obj
 0003:00003a70       $SG21531                   0000000180023a70     Child_App_cgxe_registry.obj
 0003:00003a80       $SG21533                   0000000180023a80     Child_App_cgxe_registry.obj
 0003:00003a90       $SG21535                   0000000180023a90     Child_App_cgxe_registry.obj
 0003:00003aa0       $SG21537                   0000000180023aa0     Child_App_cgxe_registry.obj
 0003:00003ab0       $SG21539                   0000000180023ab0     Child_App_cgxe_registry.obj
 0003:00003ac8       $SG21541                   0000000180023ac8     Child_App_cgxe_registry.obj
 0003:00003ae0       $SG21555                   0000000180023ae0     Child_App_cgxe_registry.obj
 0003:00003b08       _sfcnName                  0000000180023b08     Child_App_cgxe_registry.obj
 0003:00003b30       $SG21572                   0000000180023b30     Child_App_cgxe_registry.obj
 0003:00003ba8       $SG21981                   0000000180023ba8     Child_App_cgxe_registry.obj
 0003:00003bb8       $SG22188                   0000000180023bb8     Child_App_cgxe_registry.obj
 0003:00003bc0       $SG21577                   0000000180023bc0     Child_App_cgxe_registry.obj
 0003:00003c38       $SG21982                   0000000180023c38     Child_App_cgxe_registry.obj
 0003:00003c48       $SG21996                   0000000180023c48     Child_App_cgxe_registry.obj
 0003:00003c58       $SG22186                   0000000180023c58     Child_App_cgxe_registry.obj
 0003:00003c98       $SG22187                   0000000180023c98     Child_App_cgxe_registry.obj
 0003:00003ca8       $SG22194                   0000000180023ca8     Child_App_cgxe_registry.obj
 0003:00003cb0       $SG22192                   0000000180023cb0     Child_App_cgxe_registry.obj
 0003:00003cf8       $SG22193                   0000000180023cf8     Child_App_cgxe_registry.obj
 0003:00003d08       $SG22197                   0000000180023d08     Child_App_cgxe_registry.obj
 0003:00003d10       $SG22195                   0000000180023d10     Child_App_cgxe_registry.obj
 0003:00003d68       $SG22196                   0000000180023d68     Child_App_cgxe_registry.obj
 0003:00003d78       $SG22219                   0000000180023d78     Child_App_cgxe_registry.obj
 0003:00003db8       $SG22220                   0000000180023db8     Child_App_cgxe_registry.obj
 0003:00003dc8       $SG22221                   0000000180023dc8     Child_App_cgxe_registry.obj
 0003:00003dd0       $SG22225                   0000000180023dd0     Child_App_cgxe_registry.obj
 0003:00003e18       $SG22226                   0000000180023e18     Child_App_cgxe_registry.obj
 0003:00003e28       $SG22227                   0000000180023e28     Child_App_cgxe_registry.obj
 0003:00003e30       $SG22228                   0000000180023e30     Child_App_cgxe_registry.obj
 0003:00003e88       $SG22229                   0000000180023e88     Child_App_cgxe_registry.obj
 0003:00003e98       $SG22230                   0000000180023e98     Child_App_cgxe_registry.obj
 0003:00003ea0       $SG22254                   0000000180023ea0     Child_App_cgxe_registry.obj
 0003:00003ef0       $SG22255                   0000000180023ef0     Child_App_cgxe_registry.obj
 0003:00003f00       $SG22256                   0000000180023f00     Child_App_cgxe_registry.obj
 0003:00003f08       $SG22269                   0000000180023f08     Child_App_cgxe_registry.obj
 0003:00003f10       $SG22268                   0000000180023f10     Child_App_cgxe_registry.obj
 0003:00003f70       $SG22270                   0000000180023f70     Child_App_cgxe_registry.obj
 0003:00003f78       $SG22283                   0000000180023f78     Child_App_cgxe_registry.obj
 0003:00003f80       $SG22282                   0000000180023f80     Child_App_cgxe_registry.obj
 0003:00003fe0       $SG22284                   0000000180023fe0     Child_App_cgxe_registry.obj
 0003:00003fe8       $SG23259                   0000000180023fe8     Child_App_cgxe_registry.obj
 0003:00004000       $SG22637                   0000000180024000     Child_App_cgxe_registry.obj
 0003:00004078       $SG23330                   0000000180024078     Child_App_cgxe_registry.obj
 0003:00004080       $SG22640                   0000000180024080     Child_App_cgxe_registry.obj
 0003:000040f4       $SG23331                   00000001800240f4     Child_App_cgxe_registry.obj
 0003:00004100       $SG22645                   0000000180024100     Child_App_cgxe_registry.obj
 0003:00004178       $SG23332                   0000000180024178     Child_App_cgxe_registry.obj
 0003:00004180       $SG22653                   0000000180024180     Child_App_cgxe_registry.obj
 0003:000041f0       $SG22928                   00000001800241f0     Child_App_cgxe_registry.obj
 0003:00004268       $SG23338                   0000000180024268     Child_App_cgxe_registry.obj
 0003:00004270       $SG22933                   0000000180024270     Child_App_cgxe_registry.obj
 0003:000042e8       $SG23341                   00000001800242e8     Child_App_cgxe_registry.obj
 0003:000042f0       $SG23272                   00000001800242f0     Child_App_cgxe_registry.obj
 0003:00004368       $SG23344                   0000000180024368     Child_App_cgxe_registry.obj
 0003:00004370       $SG23333                   0000000180024370     Child_App_cgxe_registry.obj
 0003:000043e8       $SG23350                   00000001800243e8     Child_App_cgxe_registry.obj
 0003:000043f0       $SG23335                   00000001800243f0     Child_App_cgxe_registry.obj
 0003:00004470       $SG23345                   0000000180024470     Child_App_cgxe_registry.obj
 0003:000044f0       $SG23346                   00000001800244f0     Child_App_cgxe_registry.obj
 0003:00004500       $SG23348                   0000000180024500     Child_App_cgxe_registry.obj
 0003:0000450c       $SG23352                   000000018002450c     Child_App_cgxe_registry.obj
 0003:00004518       $SG23354                   0000000180024518     Child_App_cgxe_registry.obj
 0003:00004528       $SG23477                   0000000180024528     Child_App_cgxe_registry.obj
 0003:00004558       $SG23479                   0000000180024558     Child_App_cgxe_registry.obj
 0003:00004560       $SG23359                   0000000180024560     Child_App_cgxe_registry.obj
 0003:00004648       $SG23478                   0000000180024648     Child_App_cgxe_registry.obj
 0003:00004658       $SG23481                   0000000180024658     Child_App_cgxe_registry.obj
 0003:00004690       $SG23482                   0000000180024690     Child_App_cgxe_registry.obj
 0003:000046a0       $SG23483                   00000001800246a0     Child_App_cgxe_registry.obj
 0003:000046a8       $SG23486                   00000001800246a8     Child_App_cgxe_registry.obj
 0003:000046e0       $SG23487                   00000001800246e0     Child_App_cgxe_registry.obj
 0003:000046f0       $SG23488                   00000001800246f0     Child_App_cgxe_registry.obj
 0003:000046f8       $SG23490                   00000001800246f8     Child_App_cgxe_registry.obj
 0003:00004730       $SG23491                   0000000180024730     Child_App_cgxe_registry.obj
 0003:00004740       $SG23492                   0000000180024740     Child_App_cgxe_registry.obj
 0003:00004748       $SG23494                   0000000180024748     Child_App_cgxe_registry.obj
 0003:00004780       $SG23495                   0000000180024780     Child_App_cgxe_registry.obj
 0003:00004790       $SG23496                   0000000180024790     Child_App_cgxe_registry.obj
 0003:00004798       $SG23499                   0000000180024798     Child_App_cgxe_registry.obj
 0003:000047a8       $SG23501                   00000001800247a8     Child_App_cgxe_registry.obj
 0003:000047c0       $SG23502                   00000001800247c0     Child_App_cgxe_registry.obj
 0003:000047f8       $SG23503                   00000001800247f8     Child_App_cgxe_registry.obj
 0003:00004808       $SG23504                   0000000180024808     Child_App_cgxe_registry.obj
 0003:00004810       $SG23639                   0000000180024810     Child_App_cgxe_registry.obj
 0003:00004830       $SG23640                   0000000180024830     Child_App_cgxe_registry.obj
 0003:000048c0       $SG23646                   00000001800248c0     Child_App_cgxe_registry.obj
 0003:000048d8       $SG23653                   00000001800248d8     Child_App_cgxe_registry.obj
 0003:000048f0       $SG23647                   00000001800248f0     Child_App_cgxe_registry.obj
 0003:00004980       $SG23654                   0000000180024980     Child_App_cgxe_registry.obj
 0003:00004a10       $SG23660                   0000000180024a10     Child_App_cgxe_registry.obj
 0003:00004a30       $SG23661                   0000000180024a30     Child_App_cgxe_registry.obj
 0003:00004ac0       $SG23667                   0000000180024ac0     Child_App_cgxe_registry.obj
 0003:00004ae0       $SG23668                   0000000180024ae0     Child_App_cgxe_registry.obj
 0003:00004b70       $SG23672                   0000000180024b70     Child_App_cgxe_registry.obj
 0003:00004b90       $SG23673                   0000000180024b90     Child_App_cgxe_registry.obj
 0003:00004c20       $SG23677                   0000000180024c20     Child_App_cgxe_registry.obj
 0003:00004c48       $SG23682                   0000000180024c48     Child_App_cgxe_registry.obj
 0003:00004c70       $SG23678                   0000000180024c70     Child_App_cgxe_registry.obj
 0003:00004d00       $SG23683                   0000000180024d00     Child_App_cgxe_registry.obj
 0003:00004d90       $SG23687                   0000000180024d90     Child_App_cgxe_registry.obj
 0003:00004db0       $SG23688                   0000000180024db0     Child_App_cgxe_registry.obj
 0003:00004e40       $SG23692                   0000000180024e40     Child_App_cgxe_registry.obj
 0003:00004e60       $SG23693                   0000000180024e60     Child_App_cgxe_registry.obj
 0003:00004ef0       $SG23697                   0000000180024ef0     Child_App_cgxe_registry.obj
 0003:00004f08       $SG23733                   0000000180024f08     Child_App_cgxe_registry.obj
 0003:00004f20       $SG23698                   0000000180024f20     Child_App_cgxe_registry.obj
 0003:00004fb0       $SG23702                   0000000180024fb0     Child_App_cgxe_registry.obj
 0003:00004fd0       $SG23703                   0000000180024fd0     Child_App_cgxe_registry.obj
 0003:00005060       $SG23707                   0000000180025060     Child_App_cgxe_registry.obj
 0003:00005080       $SG23708                   0000000180025080     Child_App_cgxe_registry.obj
 0003:00005110       $SG23712                   0000000180025110     Child_App_cgxe_registry.obj
 0003:00005130       $SG23713                   0000000180025130     Child_App_cgxe_registry.obj
 0003:000051c0       $SG23717                   00000001800251c0     Child_App_cgxe_registry.obj
 0003:000051e0       $SG23718                   00000001800251e0     Child_App_cgxe_registry.obj
 0003:00005270       $SG23722                   0000000180025270     Child_App_cgxe_registry.obj
 0003:00005290       $SG23723                   0000000180025290     Child_App_cgxe_registry.obj
 0003:00005320       $SG23727                   0000000180025320     Child_App_cgxe_registry.obj
 0003:00005340       $SG23728                   0000000180025340     Child_App_cgxe_registry.obj
 0003:000053d0       $SG23734                   00000001800253d0     Child_App_cgxe_registry.obj
 0003:00005460       $SG23739                   0000000180025460     Child_App_cgxe_registry.obj
 0003:00005478       $SG23749                   0000000180025478     Child_App_cgxe_registry.obj
 0003:00005490       $SG23740                   0000000180025490     Child_App_cgxe_registry.obj
 0003:00005520       $SG23744                   0000000180025520     Child_App_cgxe_registry.obj
 0003:00005530       $SG23745                   0000000180025530     Child_App_cgxe_registry.obj
 0003:000055c0       $SG23750                   00000001800255c0     Child_App_cgxe_registry.obj
 0003:00005650       $SG23758                   0000000180025650     Child_App_cgxe_registry.obj
 0003:00005660       $SG23759                   0000000180025660     Child_App_cgxe_registry.obj
 0003:000056f0       $SG23763                   00000001800256f0     Child_App_cgxe_registry.obj
 0003:00005770       $SG23765                   0000000180025770     Child_App_cgxe_registry.obj
 0003:000057e8       $SG23812                   00000001800257e8     Child_App_cgxe_registry.obj
 0003:000057f8       $SG23893                   00000001800257f8     Child_App_cgxe_registry.obj
 0003:00005800       $SG23769                   0000000180025800     Child_App_cgxe_registry.obj
 0003:00005878       $SG23823                   0000000180025878     Child_App_cgxe_registry.obj
 0003:00005888       $SG23894                   0000000180025888     Child_App_cgxe_registry.obj
 0003:00005890       $SG23799                   0000000180025890     Child_App_cgxe_registry.obj
 0003:000059a8       $SG23836                   00000001800259a8     Child_App_cgxe_registry.obj
 0003:000059b8       $SG23847                   00000001800259b8     Child_App_cgxe_registry.obj
 0003:000059c8       $SG23860                   00000001800259c8     Child_App_cgxe_registry.obj
 0003:000059d8       $SG23871                   00000001800259d8     Child_App_cgxe_registry.obj
 0003:000059e8       $SG23881                   00000001800259e8     Child_App_cgxe_registry.obj
 0003:00005a08       $SG23892                   0000000180025a08     Child_App_cgxe_registry.obj
 0003:00005a38       $SG23905                   0000000180025a38     Child_App_cgxe_registry.obj
 0003:00005a70       $SG23906                   0000000180025a70     Child_App_cgxe_registry.obj
 0003:00005a78       $SG23907                   0000000180025a78     Child_App_cgxe_registry.obj
 0003:00005ac0       $SG21912                   0000000180025ac0     m_r9npojpcpE1nIt6wcZfq3F.obj
 0003:00005ac1       $SG21913                   0000000180025ac1     m_r9npojpcpE1nIt6wcZfq3F.obj
 0003:00005ac2       $SG21915                   0000000180025ac2     m_r9npojpcpE1nIt6wcZfq3F.obj
 0003:00005ac3       $SG21916                   0000000180025ac3     m_r9npojpcpE1nIt6wcZfq3F.obj
 0003:00005ac4       $SG21918                   0000000180025ac4     m_r9npojpcpE1nIt6wcZfq3F.obj
 0003:00005ac5       $SG21919                   0000000180025ac5     m_r9npojpcpE1nIt6wcZfq3F.obj
 0003:00005ac6       $SG21921                   0000000180025ac6     m_r9npojpcpE1nIt6wcZfq3F.obj
 0003:00005ac7       $SG21922                   0000000180025ac7     m_r9npojpcpE1nIt6wcZfq3F.obj
 0003:00005ac8       $SG21907                   0000000180025ac8     m_DH3jGOJ4u96z2aK3hkI3OE.obj
 0003:00005ac9       $SG21908                   0000000180025ac9     m_DH3jGOJ4u96z2aK3hkI3OE.obj
 0003:00005aca       $SG21910                   0000000180025aca     m_DH3jGOJ4u96z2aK3hkI3OE.obj
 0003:00005acb       $SG21911                   0000000180025acb     m_DH3jGOJ4u96z2aK3hkI3OE.obj
 0003:00005acc       $SG21913                   0000000180025acc     m_DH3jGOJ4u96z2aK3hkI3OE.obj
 0003:00005acd       $SG21914                   0000000180025acd     m_DH3jGOJ4u96z2aK3hkI3OE.obj
 0003:00005ace       $SG21916                   0000000180025ace     m_DH3jGOJ4u96z2aK3hkI3OE.obj
 0003:00005acf       $SG21917                   0000000180025acf     m_DH3jGOJ4u96z2aK3hkI3OE.obj
 0003:00005ad0       $SG21919                   0000000180025ad0     m_DH3jGOJ4u96z2aK3hkI3OE.obj
 0003:00005ad1       $SG21920                   0000000180025ad1     m_DH3jGOJ4u96z2aK3hkI3OE.obj
 0003:00005ad2       $SG21906                   0000000180025ad2     m_zBcJJKdPFoobubnOzm2A4C.obj
 0003:00005ad3       $SG21907                   0000000180025ad3     m_zBcJJKdPFoobubnOzm2A4C.obj
 0003:00005ad4       $SG21909                   0000000180025ad4     m_zBcJJKdPFoobubnOzm2A4C.obj
 0003:00005ad5       $SG21910                   0000000180025ad5     m_zBcJJKdPFoobubnOzm2A4C.obj
 0003:00005ad6       $SG21912                   0000000180025ad6     m_zBcJJKdPFoobubnOzm2A4C.obj
 0003:00005ad7       $SG21913                   0000000180025ad7     m_zBcJJKdPFoobubnOzm2A4C.obj
 0003:00005ad8       $SG21915                   0000000180025ad8     m_zBcJJKdPFoobubnOzm2A4C.obj
 0003:00005ad9       $SG21916                   0000000180025ad9     m_zBcJJKdPFoobubnOzm2A4C.obj
 0003:00005ada       $SG21912                   0000000180025ada     m_E5eYYMYEC9250ATstCUIJE.obj
 0003:00005adb       $SG21913                   0000000180025adb     m_E5eYYMYEC9250ATstCUIJE.obj
 0003:00005adc       $SG21915                   0000000180025adc     m_E5eYYMYEC9250ATstCUIJE.obj
 0003:00005add       $SG21916                   0000000180025add     m_E5eYYMYEC9250ATstCUIJE.obj
 0003:00005ade       $SG21918                   0000000180025ade     m_E5eYYMYEC9250ATstCUIJE.obj
 0003:00005adf       $SG21919                   0000000180025adf     m_E5eYYMYEC9250ATstCUIJE.obj
 0003:00005ae0       $SG21921                   0000000180025ae0     m_E5eYYMYEC9250ATstCUIJE.obj
 0003:00005ae1       $SG21922                   0000000180025ae1     m_E5eYYMYEC9250ATstCUIJE.obj
 0003:00005ae2       $SG21912                   0000000180025ae2     m_KfaDhNL7xJVG1u0RUxB9sH.obj
 0003:00005ae3       $SG21913                   0000000180025ae3     m_KfaDhNL7xJVG1u0RUxB9sH.obj
 0003:00005ae4       $SG21915                   0000000180025ae4     m_KfaDhNL7xJVG1u0RUxB9sH.obj
 0003:00005ae5       $SG21916                   0000000180025ae5     m_KfaDhNL7xJVG1u0RUxB9sH.obj
 0003:00005ae6       $SG21918                   0000000180025ae6     m_KfaDhNL7xJVG1u0RUxB9sH.obj
 0003:00005ae7       $SG21919                   0000000180025ae7     m_KfaDhNL7xJVG1u0RUxB9sH.obj
 0003:00005ae8       $SG21921                   0000000180025ae8     m_KfaDhNL7xJVG1u0RUxB9sH.obj
 0003:00005ae9       $SG21922                   0000000180025ae9     m_KfaDhNL7xJVG1u0RUxB9sH.obj
 0003:00005aea       $SG21912                   0000000180025aea     m_nyucgZWjM3Ai1CT2jftVoF.obj
 0003:00005aeb       $SG21913                   0000000180025aeb     m_nyucgZWjM3Ai1CT2jftVoF.obj
 0003:00005aec       $SG21915                   0000000180025aec     m_nyucgZWjM3Ai1CT2jftVoF.obj
 0003:00005aed       $SG21916                   0000000180025aed     m_nyucgZWjM3Ai1CT2jftVoF.obj
 0003:00005aee       $SG21918                   0000000180025aee     m_nyucgZWjM3Ai1CT2jftVoF.obj
 0003:00005aef       $SG21919                   0000000180025aef     m_nyucgZWjM3Ai1CT2jftVoF.obj
 0003:00005af0       $SG21921                   0000000180025af0     m_nyucgZWjM3Ai1CT2jftVoF.obj
 0003:00005af1       $SG21922                   0000000180025af1     m_nyucgZWjM3Ai1CT2jftVoF.obj
 0003:00005af2       $SG21912                   0000000180025af2     m_KDwHGQ2xXp4wmWKPmnDGqC.obj
 0003:00005af3       $SG21913                   0000000180025af3     m_KDwHGQ2xXp4wmWKPmnDGqC.obj
 0003:00005af4       $SG21915                   0000000180025af4     m_KDwHGQ2xXp4wmWKPmnDGqC.obj
 0003:00005af5       $SG21916                   0000000180025af5     m_KDwHGQ2xXp4wmWKPmnDGqC.obj
 0003:00005af6       $SG21918                   0000000180025af6     m_KDwHGQ2xXp4wmWKPmnDGqC.obj
 0003:00005af7       $SG21919                   0000000180025af7     m_KDwHGQ2xXp4wmWKPmnDGqC.obj
 0003:00005af8       $SG21921                   0000000180025af8     m_KDwHGQ2xXp4wmWKPmnDGqC.obj
 0003:00005af9       $SG21922                   0000000180025af9     m_KDwHGQ2xXp4wmWKPmnDGqC.obj
 0003:00005afa       $SG21912                   0000000180025afa     m_N6wSUtJycDbE8bKJByzvlC.obj
 0003:00005afb       $SG21913                   0000000180025afb     m_N6wSUtJycDbE8bKJByzvlC.obj
 0003:00005afc       $SG21915                   0000000180025afc     m_N6wSUtJycDbE8bKJByzvlC.obj
 0003:00005afd       $SG21916                   0000000180025afd     m_N6wSUtJycDbE8bKJByzvlC.obj
 0003:00005afe       $SG21918                   0000000180025afe     m_N6wSUtJycDbE8bKJByzvlC.obj
 0003:00005aff       $SG21919                   0000000180025aff     m_N6wSUtJycDbE8bKJByzvlC.obj
 0003:00005b00       $SG21921                   0000000180025b00     m_N6wSUtJycDbE8bKJByzvlC.obj
 0003:00005b01       $SG21922                   0000000180025b01     m_N6wSUtJycDbE8bKJByzvlC.obj
 0003:00005b02       $SG21906                   0000000180025b02     m_rv2q6Si9yo15c6LurhHJ.obj
 0003:00005b03       $SG21907                   0000000180025b03     m_rv2q6Si9yo15c6LurhHJ.obj
 0003:00005b04       $SG21909                   0000000180025b04     m_rv2q6Si9yo15c6LurhHJ.obj
 0003:00005b05       $SG21910                   0000000180025b05     m_rv2q6Si9yo15c6LurhHJ.obj
 0003:00005b06       $SG21912                   0000000180025b06     m_rv2q6Si9yo15c6LurhHJ.obj
 0003:00005b07       $SG21913                   0000000180025b07     m_rv2q6Si9yo15c6LurhHJ.obj
 0003:00005b08       $SG21915                   0000000180025b08     m_rv2q6Si9yo15c6LurhHJ.obj
 0003:00005b09       $SG21916                   0000000180025b09     m_rv2q6Si9yo15c6LurhHJ.obj
 0003:00005b0a       $SG21912                   0000000180025b0a     m_0IWK4xPALvAwGYJfiJSKHC.obj
 0003:00005b0b       $SG21913                   0000000180025b0b     m_0IWK4xPALvAwGYJfiJSKHC.obj
 0003:00005b0c       $SG21915                   0000000180025b0c     m_0IWK4xPALvAwGYJfiJSKHC.obj
 0003:00005b0d       $SG21916                   0000000180025b0d     m_0IWK4xPALvAwGYJfiJSKHC.obj
 0003:00005b0e       $SG21918                   0000000180025b0e     m_0IWK4xPALvAwGYJfiJSKHC.obj
 0003:00005b0f       $SG21919                   0000000180025b0f     m_0IWK4xPALvAwGYJfiJSKHC.obj
 0003:00005b10       $SG21921                   0000000180025b10     m_0IWK4xPALvAwGYJfiJSKHC.obj
 0003:00005b11       $SG21922                   0000000180025b11     m_0IWK4xPALvAwGYJfiJSKHC.obj
 0003:00005b14       $SG23326                   0000000180025b14     Child_App_cgxe_registry.obj
 0003:00005b16       ?warningGuard@?1??ssGetRootSS@@9@9 0000000180025b16     Child_App_cgxe_registry.obj
 0003:00005b17       ?warningGuard@?1??ssGetParentSS@@9@9 0000000180025b17     Child_App_cgxe_registry.obj
 0003:00005b20       GS_ExceptionRecord         0000000180025b20     MSVCRT:gs_report.obj
 0003:00005bc0       GS_ContextRecord           0000000180025bc0     MSVCRT:gs_report.obj
 0003:00006090       ?__proc_attached@@3HA      0000000180026090     MSVCRT:dll_dllmain.obj
 0003:000060d0       ?is_initialized_as_dll@@3_NA 00000001800260d0     MSVCRT:utility.obj
 0003:000060d1       ?module_local_atexit_table_initialized@@3_NA 00000001800260d1     MSVCRT:utility.obj
 0003:000060d8       ?module_local_atexit_table@@3U_onexit_table_t@@A 00000001800260d8     MSVCRT:utility.obj
 0003:000060f0       ?module_local_at_quick_exit_table@@3U_onexit_table_t@@A 00000001800260f0     MSVCRT:utility.obj
